
nautilus.bin:     file format elf64-x86-64


Disassembly of section .text:

0000000000304000 <Format_Output>:
  304000:	55                   	push   %rbp
  304001:	48 89 e5             	mov    %rsp,%rbp
  304004:	41 57                	push   %r15
  304006:	41 56                	push   %r14
  304008:	41 55                	push   %r13
  30400a:	41 54                	push   %r12
  30400c:	49 89 d5             	mov    %rdx,%r13
  30400f:	53                   	push   %rbx
  304010:	49 89 fe             	mov    %rdi,%r14
  304013:	48 81 ec 88 00 00 00 	sub    $0x88,%rsp
  30401a:	48 89 75 80          	mov    %rsi,-0x80(%rbp)
  30401e:	48 8b 45 80          	mov    -0x80(%rbp),%rax
  304022:	48 8d 58 01          	lea    0x1(%rax),%rbx
  304026:	0f b6 00             	movzbl (%rax),%eax
  304029:	84 c0                	test   %al,%al
  30402b:	0f 84 96 00 00 00    	je     3040c7 <Format_Output+0xc7>
  304031:	4d 89 ec             	mov    %r13,%r12
  304034:	3c 25                	cmp    $0x25,%al
  304036:	75 38                	jne    304070 <Format_Output+0x70>
  304038:	0f b6 03             	movzbl (%rbx),%eax
  30403b:	84 c0                	test   %al,%al
  30403d:	0f 84 84 00 00 00    	je     3040c7 <Format_Output+0xc7>
  304043:	48 8d 53 02          	lea    0x2(%rbx),%rdx
  304047:	83 e8 20             	sub    $0x20,%eax
  30404a:	45 31 ed             	xor    %r13d,%r13d
  30404d:	3c 10                	cmp    $0x10,%al
  30404f:	48 8d 72 fe          	lea    -0x2(%rdx),%rsi
  304053:	0f 87 b2 00 00 00    	ja     30410b <Format_Output+0x10b>
  304059:	0f b6 c0             	movzbl %al,%eax
  30405c:	48 b9 00 a0 34 00 00 	movabs $0x34a000,%rcx
  304063:	00 00 00 
  304066:	ff 24 c1             	jmpq   *(%rcx,%rax,8)
  304069:	0f 1f 80 00 00 00 00 	nopl   0x0(%rax)
  304070:	0f be f0             	movsbl %al,%esi
  304073:	4c 89 f7             	mov    %r14,%rdi
  304076:	41 ff 16             	callq  *(%r14)
  304079:	0f b6 03             	movzbl (%rbx),%eax
  30407c:	48 8d 53 01          	lea    0x1(%rbx),%rdx
  304080:	84 c0                	test   %al,%al
  304082:	74 43                	je     3040c7 <Format_Output+0xc7>
  304084:	48 89 d3             	mov    %rdx,%rbx
  304087:	eb ab                	jmp    304034 <Format_Output+0x34>
  304089:	0f 1f 80 00 00 00 00 	nopl   0x0(%rax)
  304090:	0f be 06             	movsbl (%rsi),%eax
  304093:	84 c0                	test   %al,%al
  304095:	74 30                	je     3040c7 <Format_Output+0xc7>
  304097:	48 83 c2 01          	add    $0x1,%rdx
  30409b:	31 db                	xor    %ebx,%ebx
  30409d:	0f 1f 00             	nopl   (%rax)
  3040a0:	8d 48 d0             	lea    -0x30(%rax),%ecx
  3040a3:	48 8d 7a fe          	lea    -0x2(%rdx),%rdi
  3040a7:	80 f9 09             	cmp    $0x9,%cl
  3040aa:	0f 86 00 02 00 00    	jbe    3042b0 <Format_Output+0x2b0>
  3040b0:	3c 2a                	cmp    $0x2a,%al
  3040b2:	0f 84 18 02 00 00    	je     3042d0 <Format_Output+0x2d0>
  3040b8:	0f b6 07             	movzbl (%rdi),%eax
  3040bb:	48 8d 77 01          	lea    0x1(%rdi),%rsi
  3040bf:	84 c0                	test   %al,%al
  3040c1:	0f 85 91 00 00 00    	jne    304158 <Format_Output+0x158>
  3040c7:	4c 89 f7             	mov    %r14,%rdi
  3040ca:	41 ff 56 08          	callq  *0x8(%r14)
  3040ce:	48 81 c4 88 00 00 00 	add    $0x88,%rsp
  3040d5:	31 c0                	xor    %eax,%eax
  3040d7:	5b                   	pop    %rbx
  3040d8:	41 5c                	pop    %r12
  3040da:	41 5d                	pop    %r13
  3040dc:	41 5e                	pop    %r14
  3040de:	41 5f                	pop    %r15
  3040e0:	5d                   	pop    %rbp
  3040e1:	c3                   	retq   
  3040e2:	66 0f 1f 44 00 00    	nopw   0x0(%rax,%rax,1)
  3040e8:	0f b6 42 ff          	movzbl -0x1(%rdx),%eax
  3040ec:	41 83 cd 01          	or     $0x1,%r13d
  3040f0:	84 c0                	test   %al,%al
  3040f2:	74 d3                	je     3040c7 <Format_Output+0xc7>
  3040f4:	0f 1f 40 00          	nopl   0x0(%rax)
  3040f8:	83 e8 20             	sub    $0x20,%eax
  3040fb:	48 83 c2 01          	add    $0x1,%rdx
  3040ff:	3c 10                	cmp    $0x10,%al
  304101:	48 8d 72 fe          	lea    -0x2(%rdx),%rsi
  304105:	0f 86 4e ff ff ff    	jbe    304059 <Format_Output+0x59>
  30410b:	0f be 06             	movsbl (%rsi),%eax
  30410e:	84 c0                	test   %al,%al
  304110:	74 b5                	je     3040c7 <Format_Output+0xc7>
  304112:	48 8d 56 02          	lea    0x2(%rsi),%rdx
  304116:	45 31 ff             	xor    %r15d,%r15d
  304119:	0f 1f 80 00 00 00 00 	nopl   0x0(%rax)
  304120:	8d 48 d0             	lea    -0x30(%rax),%ecx
  304123:	48 8d 72 ff          	lea    -0x1(%rdx),%rsi
  304127:	48 8d 7a fe          	lea    -0x2(%rdx),%rdi
  30412b:	80 f9 09             	cmp    $0x9,%cl
  30412e:	0f 86 5c 01 00 00    	jbe    304290 <Format_Output+0x290>
  304134:	3c 2a                	cmp    $0x2a,%al
  304136:	0f 84 cc 01 00 00    	je     304308 <Format_Output+0x308>
  30413c:	3c 2e                	cmp    $0x2e,%al
  30413e:	0f 84 4c ff ff ff    	je     304090 <Format_Output+0x90>
  304144:	0f b6 07             	movzbl (%rdi),%eax
  304147:	48 8d 77 01          	lea    0x1(%rdi),%rsi
  30414b:	84 c0                	test   %al,%al
  30414d:	0f 84 74 ff ff ff    	je     3040c7 <Format_Output+0xc7>
  304153:	bb ff ff ff ff       	mov    $0xffffffff,%ebx
  304158:	48 83 c6 01          	add    $0x1,%rsi
  30415c:	31 d2                	xor    %edx,%edx
  30415e:	48 8d 4e ff          	lea    -0x1(%rsi),%rcx
  304162:	48 89 4d 80          	mov    %rcx,-0x80(%rbp)
  304166:	8d 48 b4             	lea    -0x4c(%rax),%ecx
  304169:	80 f9 2e             	cmp    $0x2e,%cl
  30416c:	0f 87 b5 00 00 00    	ja     304227 <Format_Output+0x227>
  304172:	0f b6 c9             	movzbl %cl,%ecx
  304175:	48 bf 88 a0 34 00 00 	movabs $0x34a088,%rdi
  30417c:	00 00 00 
  30417f:	ff 24 cf             	jmpq   *(%rdi,%rcx,8)
  304182:	66 0f 1f 44 00 00    	nopw   0x0(%rax,%rax,1)
  304188:	0f b6 42 ff          	movzbl -0x1(%rdx),%eax
  30418c:	41 83 cd 02          	or     $0x2,%r13d
  304190:	84 c0                	test   %al,%al
  304192:	0f 85 60 ff ff ff    	jne    3040f8 <Format_Output+0xf8>
  304198:	e9 2a ff ff ff       	jmpq   3040c7 <Format_Output+0xc7>
  30419d:	0f 1f 00             	nopl   (%rax)
  3041a0:	0f b6 42 ff          	movzbl -0x1(%rdx),%eax
  3041a4:	41 83 cd 04          	or     $0x4,%r13d
  3041a8:	84 c0                	test   %al,%al
  3041aa:	0f 85 48 ff ff ff    	jne    3040f8 <Format_Output+0xf8>
  3041b0:	e9 12 ff ff ff       	jmpq   3040c7 <Format_Output+0xc7>
  3041b5:	0f 1f 00             	nopl   (%rax)
  3041b8:	0f b6 42 ff          	movzbl -0x1(%rdx),%eax
  3041bc:	41 83 cd 08          	or     $0x8,%r13d
  3041c0:	84 c0                	test   %al,%al
  3041c2:	0f 85 30 ff ff ff    	jne    3040f8 <Format_Output+0xf8>
  3041c8:	e9 fa fe ff ff       	jmpq   3040c7 <Format_Output+0xc7>
  3041cd:	0f 1f 00             	nopl   (%rax)
  3041d0:	0f b6 42 ff          	movzbl -0x1(%rdx),%eax
  3041d4:	41 83 cd 20          	or     $0x20,%r13d
  3041d8:	84 c0                	test   %al,%al
  3041da:	0f 85 18 ff ff ff    	jne    3040f8 <Format_Output+0xf8>
  3041e0:	e9 e2 fe ff ff       	jmpq   3040c7 <Format_Output+0xc7>
  3041e5:	0f 1f 00             	nopl   (%rax)
  3041e8:	0f b6 42 ff          	movzbl -0x1(%rdx),%eax
  3041ec:	41 83 cd 10          	or     $0x10,%r13d
  3041f0:	84 c0                	test   %al,%al
  3041f2:	0f 85 00 ff ff ff    	jne    3040f8 <Format_Output+0xf8>
  3041f8:	e9 ca fe ff ff       	jmpq   3040c7 <Format_Output+0xc7>
  3041fd:	0f 1f 00             	nopl   (%rax)
  304200:	0f b6 46 ff          	movzbl -0x1(%rsi),%eax
  304204:	83 c2 01             	add    $0x1,%edx
  304207:	84 c0                	test   %al,%al
  304209:	0f 84 b8 fe ff ff    	je     3040c7 <Format_Output+0xc7>
  30420f:	48 83 c6 01          	add    $0x1,%rsi
  304213:	48 8d 4e ff          	lea    -0x1(%rsi),%rcx
  304217:	48 89 4d 80          	mov    %rcx,-0x80(%rbp)
  30421b:	8d 48 b4             	lea    -0x4c(%rax),%ecx
  30421e:	80 f9 2e             	cmp    $0x2e,%cl
  304221:	0f 86 4b ff ff ff    	jbe    304172 <Format_Output+0x172>
  304227:	83 fa fe             	cmp    $0xfffffffe,%edx
  30422a:	0f 8d 10 01 00 00    	jge    304340 <Format_Output+0x340>
  304230:	8d 50 b0             	lea    -0x50(%rax),%edx
  304233:	80 fa 28             	cmp    $0x28,%dl
  304236:	0f 87 79 09 00 00    	ja     304bb5 <Format_Output+0xbb5>
  30423c:	0f b6 d2             	movzbl %dl,%edx
  30423f:	48 be 00 a2 34 00 00 	movabs $0x34a200,%rsi
  304246:	00 00 00 
  304249:	ff 24 d6             	jmpq   *(%rsi,%rdx,8)
  30424c:	0f 1f 40 00          	nopl   0x0(%rax)
  304250:	0f b6 46 ff          	movzbl -0x1(%rsi),%eax
  304254:	84 c0                	test   %al,%al
  304256:	0f 84 6b fe ff ff    	je     3040c7 <Format_Output+0xc7>
  30425c:	ba 01 00 00 00       	mov    $0x1,%edx
  304261:	eb ac                	jmp    30420f <Format_Output+0x20f>
  304263:	0f 1f 44 00 00       	nopl   0x0(%rax,%rax,1)
  304268:	0f b6 46 ff          	movzbl -0x1(%rsi),%eax
  30426c:	83 ea 01             	sub    $0x1,%edx
  30426f:	84 c0                	test   %al,%al
  304271:	75 9c                	jne    30420f <Format_Output+0x20f>
  304273:	e9 4f fe ff ff       	jmpq   3040c7 <Format_Output+0xc7>
  304278:	0f 1f 84 00 00 00 00 	nopl   0x0(%rax,%rax,1)
  30427f:	00 
  304280:	0f b6 46 ff          	movzbl -0x1(%rsi),%eax
  304284:	83 c2 02             	add    $0x2,%edx
  304287:	84 c0                	test   %al,%al
  304289:	75 84                	jne    30420f <Format_Output+0x20f>
  30428b:	e9 37 fe ff ff       	jmpq   3040c7 <Format_Output+0xc7>
  304290:	43 8d 0c bf          	lea    (%r15,%r15,4),%ecx
  304294:	44 8d 7c 48 d0       	lea    -0x30(%rax,%rcx,2),%r15d
  304299:	0f be 42 ff          	movsbl -0x1(%rdx),%eax
  30429d:	84 c0                	test   %al,%al
  30429f:	0f 84 22 fe ff ff    	je     3040c7 <Format_Output+0xc7>
  3042a5:	48 83 c2 01          	add    $0x1,%rdx
  3042a9:	e9 72 fe ff ff       	jmpq   304120 <Format_Output+0x120>
  3042ae:	66 90                	xchg   %ax,%ax
  3042b0:	8d 0c 9b             	lea    (%rbx,%rbx,4),%ecx
  3042b3:	8d 5c 48 d0          	lea    -0x30(%rax,%rcx,2),%ebx
  3042b7:	0f be 42 ff          	movsbl -0x1(%rdx),%eax
  3042bb:	84 c0                	test   %al,%al
  3042bd:	0f 84 04 fe ff ff    	je     3040c7 <Format_Output+0xc7>
  3042c3:	48 83 c2 01          	add    $0x1,%rdx
  3042c7:	e9 d4 fd ff ff       	jmpq   3040a0 <Format_Output+0xa0>
  3042cc:	0f 1f 40 00          	nopl   0x0(%rax)
  3042d0:	41 8b 0c 24          	mov    (%r12),%ecx
  3042d4:	83 f9 2f             	cmp    $0x2f,%ecx
  3042d7:	0f 87 c3 00 00 00    	ja     3043a0 <Format_Output+0x3a0>
  3042dd:	89 c8                	mov    %ecx,%eax
  3042df:	49 03 44 24 10       	add    0x10(%r12),%rax
  3042e4:	83 c1 08             	add    $0x8,%ecx
  3042e7:	41 89 0c 24          	mov    %ecx,(%r12)
  3042eb:	8b 18                	mov    (%rax),%ebx
  3042ed:	0f be 42 ff          	movsbl -0x1(%rdx),%eax
  3042f1:	85 db                	test   %ebx,%ebx
  3042f3:	0f 88 c3 00 00 00    	js     3043bc <Format_Output+0x3bc>
  3042f9:	84 c0                	test   %al,%al
  3042fb:	75 c6                	jne    3042c3 <Format_Output+0x2c3>
  3042fd:	e9 c5 fd ff ff       	jmpq   3040c7 <Format_Output+0xc7>
  304302:	66 0f 1f 44 00 00    	nopw   0x0(%rax,%rax,1)
  304308:	41 8b 0c 24          	mov    (%r12),%ecx
  30430c:	83 f9 2f             	cmp    $0x2f,%ecx
  30430f:	77 57                	ja     304368 <Format_Output+0x368>
  304311:	89 c8                	mov    %ecx,%eax
  304313:	49 03 44 24 10       	add    0x10(%r12),%rax
  304318:	83 c1 08             	add    $0x8,%ecx
  30431b:	41 89 0c 24          	mov    %ecx,(%r12)
  30431f:	44 8b 38             	mov    (%rax),%r15d
  304322:	45 85 ff             	test   %r15d,%r15d
  304325:	78 57                	js     30437e <Format_Output+0x37e>
  304327:	0f be 42 ff          	movsbl -0x1(%rdx),%eax
  30432b:	84 c0                	test   %al,%al
  30432d:	0f 85 72 ff ff ff    	jne    3042a5 <Format_Output+0x2a5>
  304333:	e9 8f fd ff ff       	jmpq   3040c7 <Format_Output+0xc7>
  304338:	0f 1f 84 00 00 00 00 	nopl   0x0(%rax,%rax,1)
  30433f:	00 
  304340:	83 fa 01             	cmp    $0x1,%edx
  304343:	0f 8e 87 00 00 00    	jle    3043d0 <Format_Output+0x3d0>
  304349:	8d 50 b0             	lea    -0x50(%rax),%edx
  30434c:	80 fa 28             	cmp    $0x28,%dl
  30434f:	0f 87 60 08 00 00    	ja     304bb5 <Format_Output+0xbb5>
  304355:	0f b6 d2             	movzbl %dl,%edx
  304358:	48 be 48 a3 34 00 00 	movabs $0x34a348,%rsi
  30435f:	00 00 00 
  304362:	ff 24 d6             	jmpq   *(%rsi,%rdx,8)
  304365:	0f 1f 00             	nopl   (%rax)
  304368:	49 8b 44 24 08       	mov    0x8(%r12),%rax
  30436d:	48 8d 48 08          	lea    0x8(%rax),%rcx
  304371:	49 89 4c 24 08       	mov    %rcx,0x8(%r12)
  304376:	44 8b 38             	mov    (%rax),%r15d
  304379:	45 85 ff             	test   %r15d,%r15d
  30437c:	79 a9                	jns    304327 <Format_Output+0x327>
  30437e:	0f be 42 ff          	movsbl -0x1(%rdx),%eax
  304382:	41 f7 df             	neg    %r15d
  304385:	41 83 cd 02          	or     $0x2,%r13d
  304389:	84 c0                	test   %al,%al
  30438b:	0f 85 14 ff ff ff    	jne    3042a5 <Format_Output+0x2a5>
  304391:	e9 31 fd ff ff       	jmpq   3040c7 <Format_Output+0xc7>
  304396:	66 2e 0f 1f 84 00 00 	nopw   %cs:0x0(%rax,%rax,1)
  30439d:	00 00 00 
  3043a0:	49 8b 44 24 08       	mov    0x8(%r12),%rax
  3043a5:	48 8d 48 08          	lea    0x8(%rax),%rcx
  3043a9:	49 89 4c 24 08       	mov    %rcx,0x8(%r12)
  3043ae:	8b 18                	mov    (%rax),%ebx
  3043b0:	0f be 42 ff          	movsbl -0x1(%rdx),%eax
  3043b4:	85 db                	test   %ebx,%ebx
  3043b6:	0f 89 3d ff ff ff    	jns    3042f9 <Format_Output+0x2f9>
  3043bc:	84 c0                	test   %al,%al
  3043be:	0f 84 03 fd ff ff    	je     3040c7 <Format_Output+0xc7>
  3043c4:	bb ff ff ff ff       	mov    $0xffffffff,%ebx
  3043c9:	e9 f5 fe ff ff       	jmpq   3042c3 <Format_Output+0x2c3>
  3043ce:	66 90                	xchg   %ax,%ax
  3043d0:	8d 70 b0             	lea    -0x50(%rax),%esi
  3043d3:	40 80 fe 28          	cmp    $0x28,%sil
  3043d7:	0f 87 d8 07 00 00    	ja     304bb5 <Format_Output+0xbb5>
  3043dd:	40 0f b6 f6          	movzbl %sil,%esi
  3043e1:	48 bf 90 a4 34 00 00 	movabs $0x34a490,%rdi
  3043e8:	00 00 00 
  3043eb:	ff 24 f7             	jmpq   *(%rdi,%rsi,8)
  3043ee:	41 80 cd 80          	or     $0x80,%r13b
  3043f2:	41 8b 14 24          	mov    (%r12),%edx
  3043f6:	45 89 e8             	mov    %r13d,%r8d
  3043f9:	41 83 c8 20          	or     $0x20,%r8d
  3043fd:	83 fa 2f             	cmp    $0x2f,%edx
  304400:	0f 87 0a 07 00 00    	ja     304b10 <Format_Output+0xb10>
  304406:	89 d0                	mov    %edx,%eax
  304408:	49 03 44 24 10       	add    0x10(%r12),%rax
  30440d:	83 c2 08             	add    $0x8,%edx
  304410:	41 89 14 24          	mov    %edx,(%r12)
  304414:	4c 8b 10             	mov    (%rax),%r10
  304417:	41 b9 01 00 00 00    	mov    $0x1,%r9d
  30441d:	45 89 c5             	mov    %r8d,%r13d
  304420:	31 f6                	xor    %esi,%esi
  304422:	41 bb 10 00 00 00    	mov    $0x10,%r11d
  304428:	bb 10 00 00 00       	mov    $0x10,%ebx
  30442d:	44 89 e8             	mov    %r13d,%eax
  304430:	48 ba e0 a5 34 00 00 	movabs $0x34a5e0,%rdx
  304437:	00 00 00 
  30443a:	25 80 00 00 00       	and    $0x80,%eax
  30443f:	89 85 6c ff ff ff    	mov    %eax,-0x94(%rbp)
  304445:	48 b8 00 a6 34 00 00 	movabs $0x34a600,%rax
  30444c:	00 00 00 
  30444f:	48 0f 44 c2          	cmove  %rdx,%rax
  304453:	31 c9                	xor    %ecx,%ecx
  304455:	41 f6 c5 40          	test   $0x40,%r13b
  304459:	48 89 85 60 ff ff ff 	mov    %rax,-0xa0(%rbp)
  304460:	74 09                	je     30446b <Format_Output+0x46b>
  304462:	4d 85 d2             	test   %r10,%r10
  304465:	0f 88 b8 06 00 00    	js     304b23 <Format_Output+0xb23>
  30446b:	4d 85 d2             	test   %r10,%r10
  30446e:	0f 84 a8 02 00 00    	je     30471c <Format_Output+0x71c>
  304474:	4d 63 c3             	movslq %r11d,%r8
  304477:	4c 89 d0             	mov    %r10,%rax
  30447a:	31 ff                	xor    %edi,%edi
  30447c:	0f 1f 40 00          	nopl   0x0(%rax)
  304480:	31 d2                	xor    %edx,%edx
  304482:	83 c7 01             	add    $0x1,%edi
  304485:	49 f7 f0             	div    %r8
  304488:	48 85 c0             	test   %rax,%rax
  30448b:	75 f3                	jne    304480 <Format_Output+0x480>
  30448d:	40 84 f6             	test   %sil,%sil
  304490:	0f 85 e2 06 00 00    	jne    304b78 <Format_Output+0xb78>
  304496:	39 fb                	cmp    %edi,%ebx
  304498:	8d 43 ff             	lea    -0x1(%rbx),%eax
  30449b:	7f 0e                	jg     3044ab <Format_Output+0x4ab>
  30449d:	4d 85 d2             	test   %r10,%r10
  3044a0:	0f 84 6a 02 00 00    	je     304710 <Format_Output+0x710>
  3044a6:	8d 47 ff             	lea    -0x1(%rdi),%eax
  3044a9:	89 fb                	mov    %edi,%ebx
  3044ab:	41 f6 c5 08          	test   $0x8,%r13b
  3044af:	89 9d 78 ff ff ff    	mov    %ebx,-0x88(%rbp)
  3044b5:	74 13                	je     3044ca <Format_Output+0x4ca>
  3044b7:	31 ff                	xor    %edi,%edi
  3044b9:	41 83 fb 10          	cmp    $0x10,%r11d
  3044bd:	40 0f 94 c7          	sete   %dil
  3044c1:	83 c7 03             	add    $0x3,%edi
  3044c4:	89 bd 78 ff ff ff    	mov    %edi,-0x88(%rbp)
  3044ca:	99                   	cltd   
  3044cb:	f7 bd 78 ff ff ff    	idivl  -0x88(%rbp)
  3044d1:	01 c3                	add    %eax,%ebx
  3044d3:	85 c9                	test   %ecx,%ecx
  3044d5:	75 09                	jne    3044e0 <Format_Output+0x4e0>
  3044d7:	41 f6 c5 14          	test   $0x14,%r13b
  3044db:	89 5d 88             	mov    %ebx,-0x78(%rbp)
  3044de:	74 06                	je     3044e6 <Format_Output+0x4e6>
  3044e0:	8d 43 01             	lea    0x1(%rbx),%eax
  3044e3:	89 45 88             	mov    %eax,-0x78(%rbp)
  3044e6:	8b 7d 88             	mov    -0x78(%rbp),%edi
  3044e9:	89 f8                	mov    %edi,%eax
  3044eb:	83 c0 02             	add    $0x2,%eax
  3044ee:	45 84 c9             	test   %r9b,%r9b
  3044f1:	0f 44 c7             	cmove  %edi,%eax
  3044f4:	44 89 ef             	mov    %r13d,%edi
  3044f7:	83 e7 03             	and    $0x3,%edi
  3044fa:	44 39 f8             	cmp    %r15d,%eax
  3044fd:	89 45 88             	mov    %eax,-0x78(%rbp)
  304500:	89 bd 70 ff ff ff    	mov    %edi,-0x90(%rbp)
  304506:	7d 68                	jge    304570 <Format_Output+0x570>
  304508:	8b 85 70 ff ff ff    	mov    -0x90(%rbp),%eax
  30450e:	85 c0                	test   %eax,%eax
  304510:	75 5e                	jne    304570 <Format_Output+0x570>
  304512:	66 0f 1f 44 00 00    	nopw   0x0(%rax,%rax,1)
  304518:	44 88 8d 53 ff ff ff 	mov    %r9b,-0xad(%rbp)
  30451f:	89 8d 54 ff ff ff    	mov    %ecx,-0xac(%rbp)
  304525:	be 20 00 00 00       	mov    $0x20,%esi
  30452a:	44 89 9d 68 ff ff ff 	mov    %r11d,-0x98(%rbp)
  304531:	4c 89 95 58 ff ff ff 	mov    %r10,-0xa8(%rbp)
  304538:	4c 89 f7             	mov    %r14,%rdi
  30453b:	41 83 ef 01          	sub    $0x1,%r15d
  30453f:	41 ff 16             	callq  *(%r14)
  304542:	44 3b 7d 88          	cmp    -0x78(%rbp),%r15d
  304546:	4c 8b 95 58 ff ff ff 	mov    -0xa8(%rbp),%r10
  30454d:	44 8b 9d 68 ff ff ff 	mov    -0x98(%rbp),%r11d
  304554:	8b 8d 54 ff ff ff    	mov    -0xac(%rbp),%ecx
  30455a:	44 0f b6 8d 53 ff ff 	movzbl -0xad(%rbp),%r9d
  304561:	ff 
  304562:	7f b4                	jg     304518 <Format_Output+0x518>
  304564:	44 8b 7d 88          	mov    -0x78(%rbp),%r15d
  304568:	0f 1f 84 00 00 00 00 	nopl   0x0(%rax,%rax,1)
  30456f:	00 
  304570:	85 c9                	test   %ecx,%ecx
  304572:	0f 85 58 01 00 00    	jne    3046d0 <Format_Output+0x6d0>
  304578:	41 f6 c5 04          	test   $0x4,%r13b
  30457c:	0f 85 65 05 00 00    	jne    304ae7 <Format_Output+0xae7>
  304582:	41 f6 c5 10          	test   $0x10,%r13b
  304586:	0f 85 20 05 00 00    	jne    304aac <Format_Output+0xaac>
  30458c:	45 84 c9             	test   %r9b,%r9b
  30458f:	0f 85 9b 05 00 00    	jne    304b30 <Format_Output+0xb30>
  304595:	44 39 fb             	cmp    %r15d,%ebx
  304598:	7d 46                	jge    3045e0 <Format_Output+0x5e0>
  30459a:	83 bd 70 ff ff ff 01 	cmpl   $0x1,-0x90(%rbp)
  3045a1:	75 3d                	jne    3045e0 <Format_Output+0x5e0>
  3045a3:	44 3b 7d 88          	cmp    -0x78(%rbp),%r15d
  3045a7:	7e 37                	jle    3045e0 <Format_Output+0x5e0>
  3045a9:	44 89 9d 6c ff ff ff 	mov    %r11d,-0x94(%rbp)
  3045b0:	4c 89 95 70 ff ff ff 	mov    %r10,-0x90(%rbp)
  3045b7:	be 30 00 00 00       	mov    $0x30,%esi
  3045bc:	4c 89 f7             	mov    %r14,%rdi
  3045bf:	41 83 ef 01          	sub    $0x1,%r15d
  3045c3:	41 ff 16             	callq  *(%r14)
  3045c6:	44 3b 7d 88          	cmp    -0x78(%rbp),%r15d
  3045ca:	4c 8b 95 70 ff ff ff 	mov    -0x90(%rbp),%r10
  3045d1:	44 8b 9d 6c ff ff ff 	mov    -0x94(%rbp),%r11d
  3045d8:	7f cf                	jg     3045a9 <Format_Output+0x5a9>
  3045da:	44 8b 7d 88          	mov    -0x78(%rbp),%r15d
  3045de:	66 90                	xchg   %ax,%ax
  3045e0:	83 fb 2b             	cmp    $0x2b,%ebx
  3045e3:	7f 73                	jg     304658 <Format_Output+0x658>
  3045e5:	48 8d 45 a0          	lea    -0x60(%rbp),%rax
  3045e9:	4c 63 cb             	movslq %ebx,%r9
  3045ec:	49 63 cb             	movslq %r11d,%rcx
  3045ef:	8b b5 78 ff ff ff    	mov    -0x88(%rbp),%esi
  3045f5:	4c 01 c8             	add    %r9,%rax
  3045f8:	85 db                	test   %ebx,%ebx
  3045fa:	48 89 85 70 ff ff ff 	mov    %rax,-0x90(%rbp)
  304601:	48 89 c7             	mov    %rax,%rdi
  304604:	7e 5a                	jle    304660 <Format_Output+0x660>
  304606:	4c 89 d0             	mov    %r10,%rax
  304609:	4c 8b 9d 60 ff ff ff 	mov    -0xa0(%rbp),%r11
  304610:	eb 25                	jmp    304637 <Format_Output+0x637>
  304612:	66 0f 1f 44 00 00    	nopw   0x0(%rax,%rax,1)
  304618:	83 ee 01             	sub    $0x1,%esi
  30461b:	49 89 f8             	mov    %rdi,%r8
  30461e:	31 d2                	xor    %edx,%edx
  304620:	83 eb 01             	sub    $0x1,%ebx
  304623:	49 8d 78 ff          	lea    -0x1(%r8),%rdi
  304627:	48 f7 f1             	div    %rcx
  30462a:	85 db                	test   %ebx,%ebx
  30462c:	41 0f b6 14 13       	movzbl (%r11,%rdx,1),%edx
  304631:	41 88 50 ff          	mov    %dl,-0x1(%r8)
  304635:	7e 29                	jle    304660 <Format_Output+0x660>
  304637:	85 f6                	test   %esi,%esi
  304639:	75 dd                	jne    304618 <Format_Output+0x618>
  30463b:	4c 8d 47 ff          	lea    -0x1(%rdi),%r8
  30463f:	c6 47 ff 5f          	movb   $0x5f,-0x1(%rdi)
  304643:	8b bd 78 ff ff ff    	mov    -0x88(%rbp),%edi
  304649:	83 eb 01             	sub    $0x1,%ebx
  30464c:	8d 77 ff             	lea    -0x1(%rdi),%esi
  30464f:	eb cd                	jmp    30461e <Format_Output+0x61e>
  304651:	0f 1f 80 00 00 00 00 	nopl   0x0(%rax)
  304658:	eb fe                	jmp    304658 <Format_Output+0x658>
  30465a:	66 0f 1f 44 00 00    	nopw   0x0(%rax,%rax,1)
  304660:	4d 85 c9             	test   %r9,%r9
  304663:	48 8d 5d a0          	lea    -0x60(%rbp),%rbx
  304667:	74 2f                	je     304698 <Format_Output+0x698>
  304669:	4c 89 e0             	mov    %r12,%rax
  30466c:	4d 89 f4             	mov    %r14,%r12
  30466f:	49 89 c6             	mov    %rax,%r14
  304672:	66 0f 1f 44 00 00    	nopw   0x0(%rax,%rax,1)
  304678:	0f be 33             	movsbl (%rbx),%esi
  30467b:	4c 89 e7             	mov    %r12,%rdi
  30467e:	48 83 c3 01          	add    $0x1,%rbx
  304682:	41 ff 14 24          	callq  *(%r12)
  304686:	48 39 9d 70 ff ff ff 	cmp    %rbx,-0x90(%rbp)
  30468d:	75 e9                	jne    304678 <Format_Output+0x678>
  30468f:	4c 89 f0             	mov    %r14,%rax
  304692:	4d 89 e6             	mov    %r12,%r14
  304695:	49 89 c4             	mov    %rax,%r12
  304698:	41 83 e5 02          	and    $0x2,%r13d
  30469c:	75 11                	jne    3046af <Format_Output+0x6af>
  30469e:	eb 18                	jmp    3046b8 <Format_Output+0x6b8>
  3046a0:	41 83 ef 01          	sub    $0x1,%r15d
  3046a4:	be 20 00 00 00       	mov    $0x20,%esi
  3046a9:	4c 89 f7             	mov    %r14,%rdi
  3046ac:	41 ff 16             	callq  *(%r14)
  3046af:	44 3b 7d 88          	cmp    -0x78(%rbp),%r15d
  3046b3:	7f eb                	jg     3046a0 <Format_Output+0x6a0>
  3046b5:	0f 1f 00             	nopl   (%rax)
  3046b8:	48 8b 45 80          	mov    -0x80(%rbp),%rax
  3046bc:	48 8d 50 01          	lea    0x1(%rax),%rdx
  3046c0:	0f b6 00             	movzbl (%rax),%eax
  3046c3:	84 c0                	test   %al,%al
  3046c5:	0f 85 b9 f9 ff ff    	jne    304084 <Format_Output+0x84>
  3046cb:	e9 f7 f9 ff ff       	jmpq   3040c7 <Format_Output+0xc7>
  3046d0:	44 88 8d 54 ff ff ff 	mov    %r9b,-0xac(%rbp)
  3046d7:	44 89 9d 68 ff ff ff 	mov    %r11d,-0x98(%rbp)
  3046de:	be 2d 00 00 00       	mov    $0x2d,%esi
  3046e3:	4c 89 95 58 ff ff ff 	mov    %r10,-0xa8(%rbp)
  3046ea:	4c 89 f7             	mov    %r14,%rdi
  3046ed:	41 ff 16             	callq  *(%r14)
  3046f0:	4c 8b 95 58 ff ff ff 	mov    -0xa8(%rbp),%r10
  3046f7:	44 8b 9d 68 ff ff ff 	mov    -0x98(%rbp),%r11d
  3046fe:	44 0f b6 8d 54 ff ff 	movzbl -0xac(%rbp),%r9d
  304705:	ff 
  304706:	e9 81 fe ff ff       	jmpq   30458c <Format_Output+0x58c>
  30470b:	0f 1f 44 00 00       	nopl   0x0(%rax,%rax,1)
  304710:	31 c0                	xor    %eax,%eax
  304712:	bb 01 00 00 00       	mov    $0x1,%ebx
  304717:	e9 8f fd ff ff       	jmpq   3044ab <Format_Output+0x4ab>
  30471c:	31 ff                	xor    %edi,%edi
  30471e:	e9 6a fd ff ff       	jmpq   30448d <Format_Output+0x48d>
  304723:	45 89 e9             	mov    %r13d,%r9d
  304726:	31 f6                	xor    %esi,%esi
  304728:	41 bb 10 00 00 00    	mov    $0x10,%r11d
  30472e:	41 c1 e9 05          	shr    $0x5,%r9d
  304732:	41 83 e1 01          	and    $0x1,%r9d
  304736:	41 8b 14 24          	mov    (%r12),%edx
  30473a:	83 fa 2f             	cmp    $0x2f,%edx
  30473d:	77 23                	ja     304762 <Format_Output+0x762>
  30473f:	89 d0                	mov    %edx,%eax
  304741:	49 03 44 24 10       	add    0x10(%r12),%rax
  304746:	83 c2 08             	add    $0x8,%edx
  304749:	41 89 14 24          	mov    %edx,(%r12)
  30474d:	4c 8b 10             	mov    (%rax),%r10
  304750:	e9 d8 fc ff ff       	jmpq   30442d <Format_Output+0x42d>
  304755:	45 31 c9             	xor    %r9d,%r9d
  304758:	31 f6                	xor    %esi,%esi
  30475a:	41 bb 0a 00 00 00    	mov    $0xa,%r11d
  304760:	eb d4                	jmp    304736 <Format_Output+0x736>
  304762:	49 8b 44 24 08       	mov    0x8(%r12),%rax
  304767:	48 8d 50 08          	lea    0x8(%rax),%rdx
  30476b:	49 89 54 24 08       	mov    %rdx,0x8(%r12)
  304770:	eb db                	jmp    30474d <Format_Output+0x74d>
  304772:	44 89 ee             	mov    %r13d,%esi
  304775:	45 31 c9             	xor    %r9d,%r9d
  304778:	41 bb 08 00 00 00    	mov    $0x8,%r11d
  30477e:	c1 ee 05             	shr    $0x5,%esi
  304781:	83 e6 01             	and    $0x1,%esi
  304784:	eb b0                	jmp    304736 <Format_Output+0x736>
  304786:	41 8b 14 24          	mov    (%r12),%edx
  30478a:	83 fa 2f             	cmp    $0x2f,%edx
  30478d:	77 64                	ja     3047f3 <Format_Output+0x7f3>
  30478f:	89 d0                	mov    %edx,%eax
  304791:	49 03 44 24 10       	add    0x10(%r12),%rax
  304796:	83 c2 08             	add    $0x8,%edx
  304799:	41 89 14 24          	mov    %edx,(%r12)
  30479d:	48 8b 00             	mov    (%rax),%rax
  3047a0:	48 c7 00 00 00 00 00 	movq   $0x0,(%rax)
  3047a7:	e9 0c ff ff ff       	jmpq   3046b8 <Format_Output+0x6b8>
  3047ac:	41 83 cd 40          	or     $0x40,%r13d
  3047b0:	41 8b 14 24          	mov    (%r12),%edx
  3047b4:	83 fa 2f             	cmp    $0x2f,%edx
  3047b7:	77 4a                	ja     304803 <Format_Output+0x803>
  3047b9:	89 d0                	mov    %edx,%eax
  3047bb:	49 03 44 24 10       	add    0x10(%r12),%rax
  3047c0:	83 c2 08             	add    $0x8,%edx
  3047c3:	41 89 14 24          	mov    %edx,(%r12)
  3047c7:	4c 8b 10             	mov    (%rax),%r10
  3047ca:	31 f6                	xor    %esi,%esi
  3047cc:	45 31 c9             	xor    %r9d,%r9d
  3047cf:	41 bb 0a 00 00 00    	mov    $0xa,%r11d
  3047d5:	e9 53 fc ff ff       	jmpq   30442d <Format_Output+0x42d>
  3047da:	41 f6 c5 20          	test   $0x20,%r13b
  3047de:	41 bb 10 00 00 00    	mov    $0x10,%r11d
  3047e4:	41 0f 95 c1          	setne  %r9b
  3047e8:	41 80 cd 80          	or     $0x80,%r13b
  3047ec:	31 f6                	xor    %esi,%esi
  3047ee:	e9 43 ff ff ff       	jmpq   304736 <Format_Output+0x736>
  3047f3:	49 8b 44 24 08       	mov    0x8(%r12),%rax
  3047f8:	48 8d 50 08          	lea    0x8(%rax),%rdx
  3047fc:	49 89 54 24 08       	mov    %rdx,0x8(%r12)
  304801:	eb 9a                	jmp    30479d <Format_Output+0x79d>
  304803:	49 8b 44 24 08       	mov    0x8(%r12),%rax
  304808:	48 8d 50 08          	lea    0x8(%rax),%rdx
  30480c:	49 89 54 24 08       	mov    %rdx,0x8(%r12)
  304811:	eb b4                	jmp    3047c7 <Format_Output+0x7c7>
  304813:	45 89 e9             	mov    %r13d,%r9d
  304816:	31 f6                	xor    %esi,%esi
  304818:	41 bb 10 00 00 00    	mov    $0x10,%r11d
  30481e:	41 c1 e9 05          	shr    $0x5,%r9d
  304822:	41 83 e1 01          	and    $0x1,%r9d
  304826:	66 2e 0f 1f 84 00 00 	nopw   %cs:0x0(%rax,%rax,1)
  30482d:	00 00 00 
  304830:	41 8b 14 24          	mov    (%r12),%edx
  304834:	83 fa 2f             	cmp    $0x2f,%edx
  304837:	77 24                	ja     30485d <Format_Output+0x85d>
  304839:	89 d0                	mov    %edx,%eax
  30483b:	49 03 44 24 10       	add    0x10(%r12),%rax
  304840:	83 c2 08             	add    $0x8,%edx
  304843:	41 89 14 24          	mov    %edx,(%r12)
  304847:	44 0f b6 10          	movzbl (%rax),%r10d
  30484b:	e9 dd fb ff ff       	jmpq   30442d <Format_Output+0x42d>
  304850:	45 31 c9             	xor    %r9d,%r9d
  304853:	31 f6                	xor    %esi,%esi
  304855:	41 bb 0a 00 00 00    	mov    $0xa,%r11d
  30485b:	eb d3                	jmp    304830 <Format_Output+0x830>
  30485d:	49 8b 44 24 08       	mov    0x8(%r12),%rax
  304862:	48 8d 50 08          	lea    0x8(%rax),%rdx
  304866:	49 89 54 24 08       	mov    %rdx,0x8(%r12)
  30486b:	eb da                	jmp    304847 <Format_Output+0x847>
  30486d:	45 89 e9             	mov    %r13d,%r9d
  304870:	31 f6                	xor    %esi,%esi
  304872:	41 bb 10 00 00 00    	mov    $0x10,%r11d
  304878:	41 c1 e9 05          	shr    $0x5,%r9d
  30487c:	41 83 e1 01          	and    $0x1,%r9d
  304880:	85 d2                	test   %edx,%edx
  304882:	74 4b                	je     3048cf <Format_Output+0x8cf>
  304884:	83 fa 01             	cmp    $0x1,%edx
  304887:	0f 84 a9 fe ff ff    	je     304736 <Format_Output+0x736>
  30488d:	83 fa ff             	cmp    $0xffffffff,%edx
  304890:	75 9e                	jne    304830 <Format_Output+0x830>
  304892:	41 8b 14 24          	mov    (%r12),%edx
  304896:	83 fa 2f             	cmp    $0x2f,%edx
  304899:	77 24                	ja     3048bf <Format_Output+0x8bf>
  30489b:	89 d0                	mov    %edx,%eax
  30489d:	49 03 44 24 10       	add    0x10(%r12),%rax
  3048a2:	83 c2 08             	add    $0x8,%edx
  3048a5:	41 89 14 24          	mov    %edx,(%r12)
  3048a9:	44 0f b7 10          	movzwl (%rax),%r10d
  3048ad:	e9 7b fb ff ff       	jmpq   30442d <Format_Output+0x42d>
  3048b2:	31 f6                	xor    %esi,%esi
  3048b4:	45 31 c9             	xor    %r9d,%r9d
  3048b7:	41 bb 0a 00 00 00    	mov    $0xa,%r11d
  3048bd:	eb c1                	jmp    304880 <Format_Output+0x880>
  3048bf:	49 8b 44 24 08       	mov    0x8(%r12),%rax
  3048c4:	48 8d 50 08          	lea    0x8(%rax),%rdx
  3048c8:	49 89 54 24 08       	mov    %rdx,0x8(%r12)
  3048cd:	eb da                	jmp    3048a9 <Format_Output+0x8a9>
  3048cf:	41 8b 14 24          	mov    (%r12),%edx
  3048d3:	83 fa 2f             	cmp    $0x2f,%edx
  3048d6:	0f 87 ad 01 00 00    	ja     304a89 <Format_Output+0xa89>
  3048dc:	89 d0                	mov    %edx,%eax
  3048de:	49 03 44 24 10       	add    0x10(%r12),%rax
  3048e3:	83 c2 08             	add    $0x8,%edx
  3048e6:	41 89 14 24          	mov    %edx,(%r12)
  3048ea:	44 8b 10             	mov    (%rax),%r10d
  3048ed:	e9 3b fb ff ff       	jmpq   30442d <Format_Output+0x42d>
  3048f2:	44 89 ee             	mov    %r13d,%esi
  3048f5:	45 31 c9             	xor    %r9d,%r9d
  3048f8:	41 bb 08 00 00 00    	mov    $0x8,%r11d
  3048fe:	c1 ee 05             	shr    $0x5,%esi
  304901:	83 e6 01             	and    $0x1,%esi
  304904:	e9 77 ff ff ff       	jmpq   304880 <Format_Output+0x880>
  304909:	41 83 cd 40          	or     $0x40,%r13d
  30490d:	85 d2                	test   %edx,%edx
  30490f:	0f 84 8d 00 00 00    	je     3049a2 <Format_Output+0x9a2>
  304915:	83 fa 01             	cmp    $0x1,%edx
  304918:	0f 84 92 fe ff ff    	je     3047b0 <Format_Output+0x7b0>
  30491e:	83 fa ff             	cmp    $0xffffffff,%edx
  304921:	74 54                	je     304977 <Format_Output+0x977>
  304923:	41 8b 14 24          	mov    (%r12),%edx
  304927:	83 fa 2f             	cmp    $0x2f,%edx
  30492a:	77 3b                	ja     304967 <Format_Output+0x967>
  30492c:	89 d0                	mov    %edx,%eax
  30492e:	49 03 44 24 10       	add    0x10(%r12),%rax
  304933:	83 c2 08             	add    $0x8,%edx
  304936:	41 89 14 24          	mov    %edx,(%r12)
  30493a:	4c 0f be 10          	movsbq (%rax),%r10
  30493e:	31 f6                	xor    %esi,%esi
  304940:	45 31 c9             	xor    %r9d,%r9d
  304943:	41 bb 0a 00 00 00    	mov    $0xa,%r11d
  304949:	e9 df fa ff ff       	jmpq   30442d <Format_Output+0x42d>
  30494e:	41 f6 c5 20          	test   $0x20,%r13b
  304952:	41 bb 10 00 00 00    	mov    $0x10,%r11d
  304958:	41 0f 95 c1          	setne  %r9b
  30495c:	41 80 cd 80          	or     $0x80,%r13b
  304960:	31 f6                	xor    %esi,%esi
  304962:	e9 19 ff ff ff       	jmpq   304880 <Format_Output+0x880>
  304967:	49 8b 44 24 08       	mov    0x8(%r12),%rax
  30496c:	48 8d 50 08          	lea    0x8(%rax),%rdx
  304970:	49 89 54 24 08       	mov    %rdx,0x8(%r12)
  304975:	eb c3                	jmp    30493a <Format_Output+0x93a>
  304977:	41 8b 14 24          	mov    (%r12),%edx
  30497b:	83 fa 2f             	cmp    $0x2f,%edx
  30497e:	77 4c                	ja     3049cc <Format_Output+0x9cc>
  304980:	89 d0                	mov    %edx,%eax
  304982:	49 03 44 24 10       	add    0x10(%r12),%rax
  304987:	83 c2 08             	add    $0x8,%edx
  30498a:	41 89 14 24          	mov    %edx,(%r12)
  30498e:	4c 0f bf 10          	movswq (%rax),%r10
  304992:	31 f6                	xor    %esi,%esi
  304994:	45 31 c9             	xor    %r9d,%r9d
  304997:	41 bb 0a 00 00 00    	mov    $0xa,%r11d
  30499d:	e9 8b fa ff ff       	jmpq   30442d <Format_Output+0x42d>
  3049a2:	41 8b 14 24          	mov    (%r12),%edx
  3049a6:	83 fa 2f             	cmp    $0x2f,%edx
  3049a9:	77 31                	ja     3049dc <Format_Output+0x9dc>
  3049ab:	89 d0                	mov    %edx,%eax
  3049ad:	49 03 44 24 10       	add    0x10(%r12),%rax
  3049b2:	83 c2 08             	add    $0x8,%edx
  3049b5:	41 89 14 24          	mov    %edx,(%r12)
  3049b9:	4c 63 10             	movslq (%rax),%r10
  3049bc:	31 f6                	xor    %esi,%esi
  3049be:	45 31 c9             	xor    %r9d,%r9d
  3049c1:	41 bb 0a 00 00 00    	mov    $0xa,%r11d
  3049c7:	e9 61 fa ff ff       	jmpq   30442d <Format_Output+0x42d>
  3049cc:	49 8b 44 24 08       	mov    0x8(%r12),%rax
  3049d1:	48 8d 50 08          	lea    0x8(%rax),%rdx
  3049d5:	49 89 54 24 08       	mov    %rdx,0x8(%r12)
  3049da:	eb b2                	jmp    30498e <Format_Output+0x98e>
  3049dc:	49 8b 44 24 08       	mov    0x8(%r12),%rax
  3049e1:	48 8d 50 08          	lea    0x8(%rax),%rdx
  3049e5:	49 89 54 24 08       	mov    %rdx,0x8(%r12)
  3049ea:	eb cd                	jmp    3049b9 <Format_Output+0x9b9>
  3049ec:	85 d2                	test   %edx,%edx
  3049ee:	74 74                	je     304a64 <Format_Output+0xa64>
  3049f0:	83 fa 01             	cmp    $0x1,%edx
  3049f3:	0f 84 8d fd ff ff    	je     304786 <Format_Output+0x786>
  3049f9:	83 fa ff             	cmp    $0xffffffff,%edx
  3049fc:	74 22                	je     304a20 <Format_Output+0xa20>
  3049fe:	41 8b 14 24          	mov    (%r12),%edx
  304a02:	83 fa 2f             	cmp    $0x2f,%edx
  304a05:	77 3d                	ja     304a44 <Format_Output+0xa44>
  304a07:	89 d0                	mov    %edx,%eax
  304a09:	49 03 44 24 10       	add    0x10(%r12),%rax
  304a0e:	83 c2 08             	add    $0x8,%edx
  304a11:	41 89 14 24          	mov    %edx,(%r12)
  304a15:	48 8b 00             	mov    (%rax),%rax
  304a18:	c6 00 00             	movb   $0x0,(%rax)
  304a1b:	e9 98 fc ff ff       	jmpq   3046b8 <Format_Output+0x6b8>
  304a20:	41 8b 14 24          	mov    (%r12),%edx
  304a24:	83 fa 2f             	cmp    $0x2f,%edx
  304a27:	77 2b                	ja     304a54 <Format_Output+0xa54>
  304a29:	89 d0                	mov    %edx,%eax
  304a2b:	49 03 44 24 10       	add    0x10(%r12),%rax
  304a30:	83 c2 08             	add    $0x8,%edx
  304a33:	41 89 14 24          	mov    %edx,(%r12)
  304a37:	48 8b 00             	mov    (%rax),%rax
  304a3a:	31 d2                	xor    %edx,%edx
  304a3c:	66 89 10             	mov    %dx,(%rax)
  304a3f:	e9 74 fc ff ff       	jmpq   3046b8 <Format_Output+0x6b8>
  304a44:	49 8b 44 24 08       	mov    0x8(%r12),%rax
  304a49:	48 8d 50 08          	lea    0x8(%rax),%rdx
  304a4d:	49 89 54 24 08       	mov    %rdx,0x8(%r12)
  304a52:	eb c1                	jmp    304a15 <Format_Output+0xa15>
  304a54:	49 8b 44 24 08       	mov    0x8(%r12),%rax
  304a59:	48 8d 50 08          	lea    0x8(%rax),%rdx
  304a5d:	49 89 54 24 08       	mov    %rdx,0x8(%r12)
  304a62:	eb d3                	jmp    304a37 <Format_Output+0xa37>
  304a64:	41 8b 14 24          	mov    (%r12),%edx
  304a68:	83 fa 2f             	cmp    $0x2f,%edx
  304a6b:	77 2f                	ja     304a9c <Format_Output+0xa9c>
  304a6d:	89 d0                	mov    %edx,%eax
  304a6f:	49 03 44 24 10       	add    0x10(%r12),%rax
  304a74:	83 c2 08             	add    $0x8,%edx
  304a77:	41 89 14 24          	mov    %edx,(%r12)
  304a7b:	48 8b 00             	mov    (%rax),%rax
  304a7e:	c7 00 00 00 00 00    	movl   $0x0,(%rax)
  304a84:	e9 2f fc ff ff       	jmpq   3046b8 <Format_Output+0x6b8>
  304a89:	49 8b 44 24 08       	mov    0x8(%r12),%rax
  304a8e:	48 8d 50 08          	lea    0x8(%rax),%rdx
  304a92:	49 89 54 24 08       	mov    %rdx,0x8(%r12)
  304a97:	e9 4e fe ff ff       	jmpq   3048ea <Format_Output+0x8ea>
  304a9c:	49 8b 44 24 08       	mov    0x8(%r12),%rax
  304aa1:	48 8d 50 08          	lea    0x8(%rax),%rdx
  304aa5:	49 89 54 24 08       	mov    %rdx,0x8(%r12)
  304aaa:	eb cf                	jmp    304a7b <Format_Output+0xa7b>
  304aac:	44 88 8d 54 ff ff ff 	mov    %r9b,-0xac(%rbp)
  304ab3:	44 89 9d 68 ff ff ff 	mov    %r11d,-0x98(%rbp)
  304aba:	be 20 00 00 00       	mov    $0x20,%esi
  304abf:	4c 89 95 58 ff ff ff 	mov    %r10,-0xa8(%rbp)
  304ac6:	4c 89 f7             	mov    %r14,%rdi
  304ac9:	41 ff 16             	callq  *(%r14)
  304acc:	44 0f b6 8d 54 ff ff 	movzbl -0xac(%rbp),%r9d
  304ad3:	ff 
  304ad4:	44 8b 9d 68 ff ff ff 	mov    -0x98(%rbp),%r11d
  304adb:	4c 8b 95 58 ff ff ff 	mov    -0xa8(%rbp),%r10
  304ae2:	e9 a5 fa ff ff       	jmpq   30458c <Format_Output+0x58c>
  304ae7:	44 88 8d 54 ff ff ff 	mov    %r9b,-0xac(%rbp)
  304aee:	44 89 9d 68 ff ff ff 	mov    %r11d,-0x98(%rbp)
  304af5:	be 2b 00 00 00       	mov    $0x2b,%esi
  304afa:	4c 89 95 58 ff ff ff 	mov    %r10,-0xa8(%rbp)
  304b01:	e9 e4 fb ff ff       	jmpq   3046ea <Format_Output+0x6ea>
  304b06:	66 2e 0f 1f 84 00 00 	nopw   %cs:0x0(%rax,%rax,1)
  304b0d:	00 00 00 
  304b10:	49 8b 44 24 08       	mov    0x8(%r12),%rax
  304b15:	48 8d 50 08          	lea    0x8(%rax),%rdx
  304b19:	49 89 54 24 08       	mov    %rdx,0x8(%r12)
  304b1e:	e9 f1 f8 ff ff       	jmpq   304414 <Format_Output+0x414>
  304b23:	49 f7 da             	neg    %r10
  304b26:	b9 01 00 00 00       	mov    $0x1,%ecx
  304b2b:	e9 3b f9 ff ff       	jmpq   30446b <Format_Output+0x46b>
  304b30:	44 89 9d 68 ff ff ff 	mov    %r11d,-0x98(%rbp)
  304b37:	4c 89 95 58 ff ff ff 	mov    %r10,-0xa8(%rbp)
  304b3e:	be 30 00 00 00       	mov    $0x30,%esi
  304b43:	4c 89 f7             	mov    %r14,%rdi
  304b46:	41 ff 16             	callq  *(%r14)
  304b49:	83 bd 6c ff ff ff 01 	cmpl   $0x1,-0x94(%rbp)
  304b50:	4c 89 f7             	mov    %r14,%rdi
  304b53:	19 f6                	sbb    %esi,%esi
  304b55:	83 e6 20             	and    $0x20,%esi
  304b58:	83 c6 58             	add    $0x58,%esi
  304b5b:	41 ff 16             	callq  *(%r14)
  304b5e:	44 8b 9d 68 ff ff ff 	mov    -0x98(%rbp),%r11d
  304b65:	4c 8b 95 58 ff ff ff 	mov    -0xa8(%rbp),%r10
  304b6c:	e9 24 fa ff ff       	jmpq   304595 <Format_Output+0x595>
  304b71:	0f 1f 80 00 00 00 00 	nopl   0x0(%rax)
  304b78:	8d 47 01             	lea    0x1(%rdi),%eax
  304b7b:	39 c3                	cmp    %eax,%ebx
  304b7d:	0f 4c d8             	cmovl  %eax,%ebx
  304b80:	e9 11 f9 ff ff       	jmpq   304496 <Format_Output+0x496>
  304b85:	41 f6 c5 20          	test   $0x20,%r13b
  304b89:	41 bb 10 00 00 00    	mov    $0x10,%r11d
  304b8f:	41 0f 95 c1          	setne  %r9b
  304b93:	41 80 cd 80          	or     $0x80,%r13b
  304b97:	31 f6                	xor    %esi,%esi
  304b99:	e9 92 fc ff ff       	jmpq   304830 <Format_Output+0x830>
  304b9e:	44 89 ee             	mov    %r13d,%esi
  304ba1:	45 31 c9             	xor    %r9d,%r9d
  304ba4:	41 bb 08 00 00 00    	mov    $0x8,%r11d
  304baa:	c1 ee 05             	shr    $0x5,%esi
  304bad:	83 e6 01             	and    $0x1,%esi
  304bb0:	e9 7b fc ff ff       	jmpq   304830 <Format_Output+0x830>
  304bb5:	0f be f0             	movsbl %al,%esi
  304bb8:	4c 89 f7             	mov    %r14,%rdi
  304bbb:	41 ff 16             	callq  *(%r14)
  304bbe:	e9 f5 fa ff ff       	jmpq   3046b8 <Format_Output+0x6b8>
  304bc3:	41 8b 14 24          	mov    (%r12),%edx
  304bc7:	83 fa 2f             	cmp    $0x2f,%edx
  304bca:	0f 87 1d 01 00 00    	ja     304ced <Format_Output+0xced>
  304bd0:	89 d0                	mov    %edx,%eax
  304bd2:	49 03 44 24 10       	add    0x10(%r12),%rax
  304bd7:	83 c2 08             	add    $0x8,%edx
  304bda:	41 89 14 24          	mov    %edx,(%r12)
  304bde:	48 8b 10             	mov    (%rax),%rdx
  304be1:	48 b8 d3 f4 34 00 00 	movabs $0x34f4d3,%rax
  304be8:	00 00 00 
  304beb:	48 85 d2             	test   %rdx,%rdx
  304bee:	48 0f 44 d0          	cmove  %rax,%rdx
  304bf2:	48 b8 a0 c9 30 00 00 	movabs $0x30c9a0,%rax
  304bf9:	00 00 00 
  304bfc:	48 89 d7             	mov    %rdx,%rdi
  304bff:	48 89 55 88          	mov    %rdx,-0x78(%rbp)
  304c03:	ff d0                	callq  *%rax
  304c05:	48 8b 55 88          	mov    -0x78(%rbp),%rdx
  304c09:	83 fb ff             	cmp    $0xffffffff,%ebx
  304c0c:	0f 84 ce 00 00 00    	je     304ce0 <Format_Output+0xce0>
  304c12:	39 d8                	cmp    %ebx,%eax
  304c14:	0f 8e c6 00 00 00    	jle    304ce0 <Format_Output+0xce0>
  304c1a:	44 39 fb             	cmp    %r15d,%ebx
  304c1d:	7d 51                	jge    304c70 <Format_Output+0xc70>
  304c1f:	41 f6 c5 02          	test   $0x2,%r13b
  304c23:	0f 85 be 00 00 00    	jne    304ce7 <Format_Output+0xce7>
  304c29:	44 89 e8             	mov    %r13d,%eax
  304c2c:	83 e0 01             	and    $0x1,%eax
  304c2f:	83 f8 01             	cmp    $0x1,%eax
  304c32:	19 c0                	sbb    %eax,%eax
  304c34:	83 e0 f0             	and    $0xfffffff0,%eax
  304c37:	83 c0 30             	add    $0x30,%eax
  304c3a:	66 0f 1f 44 00 00    	nopw   0x0(%rax,%rax,1)
  304c40:	41 83 ef 01          	sub    $0x1,%r15d
  304c44:	48 89 95 78 ff ff ff 	mov    %rdx,-0x88(%rbp)
  304c4b:	89 c6                	mov    %eax,%esi
  304c4d:	89 45 88             	mov    %eax,-0x78(%rbp)
  304c50:	4c 89 f7             	mov    %r14,%rdi
  304c53:	41 ff 16             	callq  *(%r14)
  304c56:	44 39 fb             	cmp    %r15d,%ebx
  304c59:	8b 45 88             	mov    -0x78(%rbp),%eax
  304c5c:	48 8b 95 78 ff ff ff 	mov    -0x88(%rbp),%rdx
  304c63:	7c db                	jl     304c40 <Format_Output+0xc40>
  304c65:	41 89 df             	mov    %ebx,%r15d
  304c68:	0f 1f 84 00 00 00 00 	nopl   0x0(%rax,%rax,1)
  304c6f:	00 
  304c70:	85 db                	test   %ebx,%ebx
  304c72:	0f 84 40 fa ff ff    	je     3046b8 <Format_Output+0x6b8>
  304c78:	8d 43 ff             	lea    -0x1(%rbx),%eax
  304c7b:	48 8d 44 02 01       	lea    0x1(%rdx,%rax,1),%rax
  304c80:	48 89 45 88          	mov    %rax,-0x78(%rbp)
  304c84:	0f 1f 40 00          	nopl   0x0(%rax)
  304c88:	0f be 32             	movsbl (%rdx),%esi
  304c8b:	48 83 c2 01          	add    $0x1,%rdx
  304c8f:	4c 89 f7             	mov    %r14,%rdi
  304c92:	48 89 95 78 ff ff ff 	mov    %rdx,-0x88(%rbp)
  304c99:	41 ff 16             	callq  *(%r14)
  304c9c:	48 8b 95 78 ff ff ff 	mov    -0x88(%rbp),%rdx
  304ca3:	48 3b 55 88          	cmp    -0x78(%rbp),%rdx
  304ca7:	75 df                	jne    304c88 <Format_Output+0xc88>
  304ca9:	44 39 fb             	cmp    %r15d,%ebx
  304cac:	0f 8d 06 fa ff ff    	jge    3046b8 <Format_Output+0x6b8>
  304cb2:	41 83 e5 02          	and    $0x2,%r13d
  304cb6:	0f 84 fc f9 ff ff    	je     3046b8 <Format_Output+0x6b8>
  304cbc:	4d 89 e5             	mov    %r12,%r13
  304cbf:	41 89 dc             	mov    %ebx,%r12d
  304cc2:	44 89 fb             	mov    %r15d,%ebx
  304cc5:	83 eb 01             	sub    $0x1,%ebx
  304cc8:	be 20 00 00 00       	mov    $0x20,%esi
  304ccd:	4c 89 f7             	mov    %r14,%rdi
  304cd0:	41 ff 16             	callq  *(%r14)
  304cd3:	44 39 e3             	cmp    %r12d,%ebx
  304cd6:	7f ed                	jg     304cc5 <Format_Output+0xcc5>
  304cd8:	e9 41 f3 ff ff       	jmpq   30401e <Format_Output+0x1e>
  304cdd:	0f 1f 00             	nopl   (%rax)
  304ce0:	89 c3                	mov    %eax,%ebx
  304ce2:	e9 33 ff ff ff       	jmpq   304c1a <Format_Output+0xc1a>
  304ce7:	85 db                	test   %ebx,%ebx
  304ce9:	75 8d                	jne    304c78 <Format_Output+0xc78>
  304ceb:	eb cf                	jmp    304cbc <Format_Output+0xcbc>
  304ced:	49 8b 44 24 08       	mov    0x8(%r12),%rax
  304cf2:	48 8d 50 08          	lea    0x8(%rax),%rdx
  304cf6:	49 89 54 24 08       	mov    %rdx,0x8(%r12)
  304cfb:	e9 de fe ff ff       	jmpq   304bde <Format_Output+0xbde>
  304d00:	41 83 cd 40          	or     $0x40,%r13d
  304d04:	e9 1a fc ff ff       	jmpq   304923 <Format_Output+0x923>
  304d09:	41 8b 14 24          	mov    (%r12),%edx
  304d0d:	83 fa 2f             	cmp    $0x2f,%edx
  304d10:	77 21                	ja     304d33 <Format_Output+0xd33>
  304d12:	89 d0                	mov    %edx,%eax
  304d14:	49 03 44 24 10       	add    0x10(%r12),%rax
  304d19:	83 c2 08             	add    $0x8,%edx
  304d1c:	41 89 14 24          	mov    %edx,(%r12)
  304d20:	8b 00                	mov    (%rax),%eax
  304d22:	48 8d 55 9f          	lea    -0x61(%rbp),%rdx
  304d26:	88 45 9f             	mov    %al,-0x61(%rbp)
  304d29:	b8 01 00 00 00       	mov    $0x1,%eax
  304d2e:	e9 d6 fe ff ff       	jmpq   304c09 <Format_Output+0xc09>
  304d33:	49 8b 44 24 08       	mov    0x8(%r12),%rax
  304d38:	48 8d 50 08          	lea    0x8(%rax),%rdx
  304d3c:	49 89 54 24 08       	mov    %rdx,0x8(%r12)
  304d41:	eb dd                	jmp    304d20 <Format_Output+0xd20>
  304d43:	66 2e 0f 1f 84 00 00 	nopw   %cs:0x0(%rax,%rax,1)
  304d4a:	00 00 00 
  304d4d:	0f 1f 00             	nopl   (%rax)

0000000000304d50 <put_dec_trunc>:
  304d50:	89 f2                	mov    %esi,%edx
  304d52:	41 89 f0             	mov    %esi,%r8d
  304d55:	41 89 f1             	mov    %esi,%r9d
  304d58:	c1 ea 04             	shr    $0x4,%edx
  304d5b:	41 c1 e8 08          	shr    $0x8,%r8d
  304d5f:	41 c1 e9 0c          	shr    $0xc,%r9d
  304d63:	83 e2 0f             	and    $0xf,%edx
  304d66:	41 83 e0 0f          	and    $0xf,%r8d
  304d6a:	83 e6 0f             	and    $0xf,%esi
  304d6d:	42 8d 04 02          	lea    (%rdx,%r8,1),%eax
  304d71:	55                   	push   %rbp
  304d72:	44 01 c8             	add    %r9d,%eax
  304d75:	48 89 e5             	mov    %rsp,%rbp
  304d78:	8d 04 40             	lea    (%rax,%rax,2),%eax
  304d7b:	8d 34 46             	lea    (%rsi,%rax,2),%esi
  304d7e:	69 c6 cd 00 00 00    	imul   $0xcd,%esi,%eax
  304d84:	c1 e8 0b             	shr    $0xb,%eax
  304d87:	89 c1                	mov    %eax,%ecx
  304d89:	8d 04 80             	lea    (%rax,%rax,4),%eax
  304d8c:	01 c0                	add    %eax,%eax
  304d8e:	29 c6                	sub    %eax,%esi
  304d90:	43 8d 04 c9          	lea    (%r9,%r9,8),%eax
  304d94:	83 c6 30             	add    $0x30,%esi
  304d97:	01 d0                	add    %edx,%eax
  304d99:	43 8d 14 80          	lea    (%r8,%r8,4),%edx
  304d9d:	40 88 37             	mov    %sil,(%rdi)
  304da0:	01 d0                	add    %edx,%eax
  304da2:	01 c8                	add    %ecx,%eax
  304da4:	74 7a                	je     304e20 <put_dec_trunc+0xd0>
  304da6:	69 d0 cd 00 00 00    	imul   $0xcd,%eax,%edx
  304dac:	c1 ea 0b             	shr    $0xb,%edx
  304daf:	8d 0c 92             	lea    (%rdx,%rdx,4),%ecx
  304db2:	01 c9                	add    %ecx,%ecx
  304db4:	29 c8                	sub    %ecx,%eax
  304db6:	44 89 c9             	mov    %r9d,%ecx
  304db9:	83 c0 30             	add    $0x30,%eax
  304dbc:	88 47 01             	mov    %al,0x1(%rdi)
  304dbf:	42 8d 04 42          	lea    (%rdx,%r8,2),%eax
  304dc3:	09 c1                	or     %eax,%ecx
  304dc5:	74 49                	je     304e10 <put_dec_trunc+0xc0>
  304dc7:	8d 14 40             	lea    (%rax,%rax,2),%edx
  304dca:	8d 14 90             	lea    (%rax,%rdx,4),%edx
  304dcd:	c1 ea 07             	shr    $0x7,%edx
  304dd0:	8d 0c 92             	lea    (%rdx,%rdx,4),%ecx
  304dd3:	01 c9                	add    %ecx,%ecx
  304dd5:	29 c8                	sub    %ecx,%eax
  304dd7:	83 c0 30             	add    $0x30,%eax
  304dda:	88 47 02             	mov    %al,0x2(%rdi)
  304ddd:	42 8d 04 8a          	lea    (%rdx,%r9,4),%eax
  304de1:	85 c0                	test   %eax,%eax
  304de3:	74 4b                	je     304e30 <put_dec_trunc+0xe0>
  304de5:	69 d0 cd 00 00 00    	imul   $0xcd,%eax,%edx
  304deb:	c1 ea 0b             	shr    $0xb,%edx
  304dee:	8d 0c 92             	lea    (%rdx,%rdx,4),%ecx
  304df1:	01 c9                	add    %ecx,%ecx
  304df3:	29 c8                	sub    %ecx,%eax
  304df5:	83 c0 30             	add    $0x30,%eax
  304df8:	85 d2                	test   %edx,%edx
  304dfa:	88 47 03             	mov    %al,0x3(%rdi)
  304dfd:	48 8d 47 04          	lea    0x4(%rdi),%rax
  304e01:	74 0a                	je     304e0d <put_dec_trunc+0xbd>
  304e03:	83 c2 30             	add    $0x30,%edx
  304e06:	48 8d 47 05          	lea    0x5(%rdi),%rax
  304e0a:	88 57 04             	mov    %dl,0x4(%rdi)
  304e0d:	5d                   	pop    %rbp
  304e0e:	c3                   	retq   
  304e0f:	90                   	nop
  304e10:	48 8d 47 02          	lea    0x2(%rdi),%rax
  304e14:	5d                   	pop    %rbp
  304e15:	c3                   	retq   
  304e16:	66 2e 0f 1f 84 00 00 	nopw   %cs:0x0(%rax,%rax,1)
  304e1d:	00 00 00 
  304e20:	48 8d 47 01          	lea    0x1(%rdi),%rax
  304e24:	5d                   	pop    %rbp
  304e25:	c3                   	retq   
  304e26:	66 2e 0f 1f 84 00 00 	nopw   %cs:0x0(%rax,%rax,1)
  304e2d:	00 00 00 
  304e30:	48 8d 47 03          	lea    0x3(%rdi),%rax
  304e34:	5d                   	pop    %rbp
  304e35:	c3                   	retq   
  304e36:	66 2e 0f 1f 84 00 00 	nopw   %cs:0x0(%rax,%rax,1)
  304e3d:	00 00 00 

0000000000304e40 <put_dec>:
  304e40:	55                   	push   %rbp
  304e41:	48 81 fe 9f 86 01 00 	cmp    $0x1869f,%rsi
  304e48:	48 b9 43 78 b4 71 c4 	movabs $0xa7c5ac471b47843,%rcx
  304e4f:	5a 7c 0a 
  304e52:	48 89 e5             	mov    %rsp,%rbp
  304e55:	0f 86 eb 00 00 00    	jbe    304f46 <put_dec+0x106>
  304e5b:	0f 1f 44 00 00       	nopl   0x0(%rax,%rax,1)
  304e60:	48 89 f2             	mov    %rsi,%rdx
  304e63:	48 c1 ea 05          	shr    $0x5,%rdx
  304e67:	48 89 d0             	mov    %rdx,%rax
  304e6a:	48 f7 e1             	mul    %rcx
  304e6d:	48 c1 ea 07          	shr    $0x7,%rdx
  304e71:	48 69 c2 a0 86 01 00 	imul   $0x186a0,%rdx,%rax
  304e78:	48 29 c6             	sub    %rax,%rsi
  304e7b:	49 89 f1             	mov    %rsi,%r9
  304e7e:	48 89 d6             	mov    %rdx,%rsi
  304e81:	45 89 c8             	mov    %r9d,%r8d
  304e84:	44 89 ca             	mov    %r9d,%edx
  304e87:	45 89 ca             	mov    %r9d,%r10d
  304e8a:	41 c1 e8 04          	shr    $0x4,%r8d
  304e8e:	c1 ea 08             	shr    $0x8,%edx
  304e91:	41 c1 ea 0c          	shr    $0xc,%r10d
  304e95:	83 e2 0f             	and    $0xf,%edx
  304e98:	41 83 e0 0f          	and    $0xf,%r8d
  304e9c:	41 83 e1 0f          	and    $0xf,%r9d
  304ea0:	41 8d 04 10          	lea    (%r8,%rdx,1),%eax
  304ea4:	44 01 d0             	add    %r10d,%eax
  304ea7:	8d 04 40             	lea    (%rax,%rax,2),%eax
  304eaa:	45 8d 0c 41          	lea    (%r9,%rax,2),%r9d
  304eae:	41 69 c1 cd 00 00 00 	imul   $0xcd,%r9d,%eax
  304eb5:	c1 e8 0b             	shr    $0xb,%eax
  304eb8:	44 8d 1c 80          	lea    (%rax,%rax,4),%r11d
  304ebc:	45 01 db             	add    %r11d,%r11d
  304ebf:	45 29 d9             	sub    %r11d,%r9d
  304ec2:	41 83 c1 30          	add    $0x30,%r9d
  304ec6:	44 88 0f             	mov    %r9b,(%rdi)
  304ec9:	47 8d 0c d2          	lea    (%r10,%r10,8),%r9d
  304ecd:	45 01 c8             	add    %r9d,%r8d
  304ed0:	44 8d 0c 92          	lea    (%rdx,%rdx,4),%r9d
  304ed4:	45 01 c8             	add    %r9d,%r8d
  304ed7:	44 01 c0             	add    %r8d,%eax
  304eda:	44 69 c0 cd 00 00 00 	imul   $0xcd,%eax,%r8d
  304ee1:	41 c1 e8 0b          	shr    $0xb,%r8d
  304ee5:	47 8d 0c 80          	lea    (%r8,%r8,4),%r9d
  304ee9:	45 01 c9             	add    %r9d,%r9d
  304eec:	44 29 c8             	sub    %r9d,%eax
  304eef:	83 c0 30             	add    $0x30,%eax
  304ef2:	88 47 01             	mov    %al,0x1(%rdi)
  304ef5:	41 8d 04 50          	lea    (%r8,%rdx,2),%eax
  304ef9:	8d 14 40             	lea    (%rax,%rax,2),%edx
  304efc:	8d 14 90             	lea    (%rax,%rdx,4),%edx
  304eff:	c1 ea 07             	shr    $0x7,%edx
  304f02:	44 8d 04 92          	lea    (%rdx,%rdx,4),%r8d
  304f06:	42 8d 14 92          	lea    (%rdx,%r10,4),%edx
  304f0a:	45 01 c0             	add    %r8d,%r8d
  304f0d:	44 29 c0             	sub    %r8d,%eax
  304f10:	83 c0 30             	add    $0x30,%eax
  304f13:	88 47 02             	mov    %al,0x2(%rdi)
  304f16:	69 c2 cd 00 00 00    	imul   $0xcd,%edx,%eax
  304f1c:	c1 e8 0b             	shr    $0xb,%eax
  304f1f:	44 8d 04 80          	lea    (%rax,%rax,4),%r8d
  304f23:	45 01 c0             	add    %r8d,%r8d
  304f26:	44 29 c2             	sub    %r8d,%edx
  304f29:	48 83 c7 05          	add    $0x5,%rdi
  304f2d:	83 c0 30             	add    $0x30,%eax
  304f30:	83 c2 30             	add    $0x30,%edx
  304f33:	88 57 fe             	mov    %dl,-0x2(%rdi)
  304f36:	48 81 fe 9f 86 01 00 	cmp    $0x1869f,%rsi
  304f3d:	88 47 ff             	mov    %al,-0x1(%rdi)
  304f40:	0f 87 1a ff ff ff    	ja     304e60 <put_dec+0x20>
  304f46:	5d                   	pop    %rbp
  304f47:	48 b8 50 4d 30 00 00 	movabs $0x304d50,%rax
  304f4e:	00 00 00 
  304f51:	ff e0                	jmpq   *%rax
  304f53:	0f 1f 00             	nopl   (%rax)
  304f56:	66 2e 0f 1f 84 00 00 	nopw   %cs:0x0(%rax,%rax,1)
  304f5d:	00 00 00 

0000000000304f60 <number.isra.1>:
  304f60:	55                   	push   %rbp
  304f61:	89 c8                	mov    %ecx,%eax
  304f63:	c1 e8 06             	shr    $0x6,%eax
  304f66:	48 89 e5             	mov    %rsp,%rbp
  304f69:	41 57                	push   %r15
  304f6b:	41 56                	push   %r14
  304f6d:	41 55                	push   %r13
  304f6f:	41 54                	push   %r12
  304f71:	41 89 ce             	mov    %ecx,%r14d
  304f74:	53                   	push   %rbx
  304f75:	45 89 f5             	mov    %r14d,%r13d
  304f78:	48 89 fb             	mov    %rdi,%rbx
  304f7b:	49 89 f4             	mov    %rsi,%r12
  304f7e:	48 83 ec 68          	sub    $0x68,%rsp
  304f82:	41 83 f9 0a          	cmp    $0xa,%r9d
  304f86:	0f 95 c1             	setne  %cl
  304f89:	41 83 e5 20          	and    $0x20,%r13d
  304f8d:	21 c1                	and    %eax,%ecx
  304f8f:	44 89 f0             	mov    %r14d,%eax
  304f92:	83 e0 10             	and    $0x10,%eax
  304f95:	88 8d 7f ff ff ff    	mov    %cl,-0x81(%rbp)
  304f9b:	89 85 78 ff ff ff    	mov    %eax,-0x88(%rbp)
  304fa1:	74 04                	je     304fa7 <number.isra.1+0x47>
  304fa3:	41 83 e6 fe          	and    $0xfffffffe,%r14d
  304fa7:	41 f6 c6 02          	test   $0x2,%r14b
  304fab:	c6 85 7e ff ff ff 00 	movb   $0x0,-0x82(%rbp)
  304fb2:	74 2c                	je     304fe0 <number.isra.1+0x80>
  304fb4:	48 85 d2             	test   %rdx,%rdx
  304fb7:	0f 88 46 02 00 00    	js     305203 <number.isra.1+0x2a3>
  304fbd:	41 f6 c6 04          	test   $0x4,%r14b
  304fc1:	0f 85 f9 01 00 00    	jne    3051c0 <number.isra.1+0x260>
  304fc7:	41 f6 c6 08          	test   $0x8,%r14b
  304fcb:	74 13                	je     304fe0 <number.isra.1+0x80>
  304fcd:	41 83 e8 01          	sub    $0x1,%r8d
  304fd1:	c6 85 7e ff ff ff 20 	movb   $0x20,-0x82(%rbp)
  304fd8:	0f 1f 84 00 00 00 00 	nopl   0x0(%rax,%rax,1)
  304fdf:	00 
  304fe0:	80 bd 7f ff ff ff 00 	cmpb   $0x0,-0x81(%rbp)
  304fe7:	74 0e                	je     304ff7 <number.isra.1+0x97>
  304fe9:	41 83 f9 10          	cmp    $0x10,%r9d
  304fed:	0f 84 f3 01 00 00    	je     3051e6 <number.isra.1+0x286>
  304ff3:	41 83 e8 01          	sub    $0x1,%r8d
  304ff7:	48 85 d2             	test   %rdx,%rdx
  304ffa:	74 74                	je     305070 <number.isra.1+0x110>
  304ffc:	41 83 f9 0a          	cmp    $0xa,%r9d
  305000:	0f 84 15 02 00 00    	je     30521b <number.isra.1+0x2bb>
  305006:	31 c9                	xor    %ecx,%ecx
  305008:	41 83 f9 10          	cmp    $0x10,%r9d
  30500c:	45 8d 59 ff          	lea    -0x1(%r9),%r11d
  305010:	0f 94 c1             	sete   %cl
  305013:	b8 0f 00 00 00       	mov    $0xf,%eax
  305018:	83 c1 03             	add    $0x3,%ecx
  30501b:	41 83 f9 10          	cmp    $0x10,%r9d
  30501f:	44 0f 44 d8          	cmove  %eax,%r11d
  305023:	48 8d 75 80          	lea    -0x80(%rbp),%rsi
  305027:	45 31 d2             	xor    %r10d,%r10d
  30502a:	49 bf 80 ad 34 00 00 	movabs $0x34ad80,%r15
  305031:	00 00 00 
  305034:	44 89 85 74 ff ff ff 	mov    %r8d,-0x8c(%rbp)
  30503b:	eb 06                	jmp    305043 <number.isra.1+0xe3>
  30503d:	0f 1f 00             	nopl   (%rax)
  305040:	41 89 fa             	mov    %edi,%r10d
  305043:	89 d0                	mov    %edx,%eax
  305045:	45 89 e8             	mov    %r13d,%r8d
  305048:	48 d3 ea             	shr    %cl,%rdx
  30504b:	44 21 d8             	and    %r11d,%eax
  30504e:	48 83 c6 01          	add    $0x1,%rsi
  305052:	41 8d 7a 01          	lea    0x1(%r10),%edi
  305056:	0f b6 c0             	movzbl %al,%eax
  305059:	45 0a 04 07          	or     (%r15,%rax,1),%r8b
  30505d:	44 88 46 ff          	mov    %r8b,-0x1(%rsi)
  305061:	48 85 d2             	test   %rdx,%rdx
  305064:	75 da                	jne    305040 <number.isra.1+0xe0>
  305066:	44 8b 85 74 ff ff ff 	mov    -0x8c(%rbp),%r8d
  30506d:	eb 0d                	jmp    30507c <number.isra.1+0x11c>
  30506f:	90                   	nop
  305070:	c6 45 80 30          	movb   $0x30,-0x80(%rbp)
  305074:	45 31 d2             	xor    %r10d,%r10d
  305077:	bf 01 00 00 00       	mov    $0x1,%edi
  30507c:	3b 7d 10             	cmp    0x10(%rbp),%edi
  30507f:	89 f8                	mov    %edi,%eax
  305081:	0f 4c 45 10          	cmovl  0x10(%rbp),%eax
  305085:	41 29 c0             	sub    %eax,%r8d
  305088:	41 f6 c6 11          	test   $0x11,%r14b
  30508c:	75 29                	jne    3050b7 <number.isra.1+0x157>
  30508e:	41 83 e8 01          	sub    $0x1,%r8d
  305092:	78 23                	js     3050b7 <number.isra.1+0x157>
  305094:	45 89 c0             	mov    %r8d,%r8d
  305097:	4a 8d 54 03 01       	lea    0x1(%rbx,%r8,1),%rdx
  30509c:	0f 1f 40 00          	nopl   0x0(%rax)
  3050a0:	49 39 dc             	cmp    %rbx,%r12
  3050a3:	76 03                	jbe    3050a8 <number.isra.1+0x148>
  3050a5:	c6 03 20             	movb   $0x20,(%rbx)
  3050a8:	48 83 c3 01          	add    $0x1,%rbx
  3050ac:	48 39 d3             	cmp    %rdx,%rbx
  3050af:	75 ef                	jne    3050a0 <number.isra.1+0x140>
  3050b1:	41 b8 ff ff ff ff    	mov    $0xffffffff,%r8d
  3050b7:	0f b6 b5 7e ff ff ff 	movzbl -0x82(%rbp),%esi
  3050be:	40 84 f6             	test   %sil,%sil
  3050c1:	74 0d                	je     3050d0 <number.isra.1+0x170>
  3050c3:	49 39 dc             	cmp    %rbx,%r12
  3050c6:	0f 87 ec 00 00 00    	ja     3051b8 <number.isra.1+0x258>
  3050cc:	48 83 c3 01          	add    $0x1,%rbx
  3050d0:	80 bd 7f ff ff ff 00 	cmpb   $0x0,-0x81(%rbp)
  3050d7:	74 19                	je     3050f2 <number.isra.1+0x192>
  3050d9:	49 39 dc             	cmp    %rbx,%r12
  3050dc:	76 03                	jbe    3050e1 <number.isra.1+0x181>
  3050de:	c6 03 30             	movb   $0x30,(%rbx)
  3050e1:	41 83 f9 10          	cmp    $0x10,%r9d
  3050e5:	48 8d 53 01          	lea    0x1(%rbx),%rdx
  3050e9:	0f 84 e1 00 00 00    	je     3051d0 <number.isra.1+0x270>
  3050ef:	48 89 d3             	mov    %rdx,%rbx
  3050f2:	8b 95 78 ff ff ff    	mov    -0x88(%rbp),%edx
  3050f8:	85 d2                	test   %edx,%edx
  3050fa:	75 50                	jne    30514c <number.isra.1+0x1ec>
  3050fc:	41 83 e6 01          	and    $0x1,%r14d
  305100:	41 83 fe 01          	cmp    $0x1,%r14d
  305104:	19 c9                	sbb    %ecx,%ecx
  305106:	83 e1 f0             	and    $0xfffffff0,%ecx
  305109:	83 c1 30             	add    $0x30,%ecx
  30510c:	41 83 e8 01          	sub    $0x1,%r8d
  305110:	78 3a                	js     30514c <number.isra.1+0x1ec>
  305112:	45 89 c0             	mov    %r8d,%r8d
  305115:	4a 8d 54 03 01       	lea    0x1(%rbx,%r8,1),%rdx
  30511a:	66 0f 1f 44 00 00    	nopw   0x0(%rax,%rax,1)
  305120:	49 39 dc             	cmp    %rbx,%r12
  305123:	76 02                	jbe    305127 <number.isra.1+0x1c7>
  305125:	88 0b                	mov    %cl,(%rbx)
  305127:	48 83 c3 01          	add    $0x1,%rbx
  30512b:	48 39 da             	cmp    %rbx,%rdx
  30512e:	75 f0                	jne    305120 <number.isra.1+0x1c0>
  305130:	83 e8 01             	sub    $0x1,%eax
  305133:	41 b8 ff ff ff ff    	mov    $0xffffffff,%r8d
  305139:	39 c7                	cmp    %eax,%edi
  30513b:	7f 16                	jg     305153 <number.isra.1+0x1f3>
  30513d:	0f 1f 00             	nopl   (%rax)
  305140:	49 39 dc             	cmp    %rbx,%r12
  305143:	76 03                	jbe    305148 <number.isra.1+0x1e8>
  305145:	c6 03 30             	movb   $0x30,(%rbx)
  305148:	48 83 c3 01          	add    $0x1,%rbx
  30514c:	83 e8 01             	sub    $0x1,%eax
  30514f:	39 c7                	cmp    %eax,%edi
  305151:	7e ed                	jle    305140 <number.isra.1+0x1e0>
  305153:	45 85 d2             	test   %r10d,%r10d
  305156:	78 2b                	js     305183 <number.isra.1+0x223>
  305158:	44 89 d2             	mov    %r10d,%edx
  30515b:	48 89 d8             	mov    %rbx,%rax
  30515e:	66 90                	xchg   %ax,%ax
  305160:	49 39 c4             	cmp    %rax,%r12
  305163:	76 0a                	jbe    30516f <number.isra.1+0x20f>
  305165:	48 63 ca             	movslq %edx,%rcx
  305168:	0f b6 4c 0d 80       	movzbl -0x80(%rbp,%rcx,1),%ecx
  30516d:	88 08                	mov    %cl,(%rax)
  30516f:	83 ea 01             	sub    $0x1,%edx
  305172:	48 83 c0 01          	add    $0x1,%rax
  305176:	83 fa ff             	cmp    $0xffffffff,%edx
  305179:	75 e5                	jne    305160 <number.isra.1+0x200>
  30517b:	4d 63 d2             	movslq %r10d,%r10
  30517e:	4a 8d 5c 13 01       	lea    0x1(%rbx,%r10,1),%rbx
  305183:	41 83 e8 01          	sub    $0x1,%r8d
  305187:	0f 88 89 00 00 00    	js     305216 <number.isra.1+0x2b6>
  30518d:	45 89 c0             	mov    %r8d,%r8d
  305190:	4a 8d 44 03 01       	lea    0x1(%rbx,%r8,1),%rax
  305195:	0f 1f 00             	nopl   (%rax)
  305198:	49 39 dc             	cmp    %rbx,%r12
  30519b:	76 03                	jbe    3051a0 <number.isra.1+0x240>
  30519d:	c6 03 20             	movb   $0x20,(%rbx)
  3051a0:	48 83 c3 01          	add    $0x1,%rbx
  3051a4:	48 39 d8             	cmp    %rbx,%rax
  3051a7:	75 ef                	jne    305198 <number.isra.1+0x238>
  3051a9:	48 83 c4 68          	add    $0x68,%rsp
  3051ad:	5b                   	pop    %rbx
  3051ae:	41 5c                	pop    %r12
  3051b0:	41 5d                	pop    %r13
  3051b2:	41 5e                	pop    %r14
  3051b4:	41 5f                	pop    %r15
  3051b6:	5d                   	pop    %rbp
  3051b7:	c3                   	retq   
  3051b8:	40 88 33             	mov    %sil,(%rbx)
  3051bb:	e9 0c ff ff ff       	jmpq   3050cc <number.isra.1+0x16c>
  3051c0:	41 83 e8 01          	sub    $0x1,%r8d
  3051c4:	c6 85 7e ff ff ff 2b 	movb   $0x2b,-0x82(%rbp)
  3051cb:	e9 10 fe ff ff       	jmpq   304fe0 <number.isra.1+0x80>
  3051d0:	49 39 d4             	cmp    %rdx,%r12
  3051d3:	76 08                	jbe    3051dd <number.isra.1+0x27d>
  3051d5:	41 83 cd 58          	or     $0x58,%r13d
  3051d9:	44 88 6b 01          	mov    %r13b,0x1(%rbx)
  3051dd:	48 83 c3 02          	add    $0x2,%rbx
  3051e1:	e9 0c ff ff ff       	jmpq   3050f2 <number.isra.1+0x192>
  3051e6:	41 83 e8 02          	sub    $0x2,%r8d
  3051ea:	48 85 d2             	test   %rdx,%rdx
  3051ed:	0f 84 7d fe ff ff    	je     305070 <number.isra.1+0x110>
  3051f3:	41 bb 0f 00 00 00    	mov    $0xf,%r11d
  3051f9:	b9 04 00 00 00       	mov    $0x4,%ecx
  3051fe:	e9 20 fe ff ff       	jmpq   305023 <number.isra.1+0xc3>
  305203:	48 f7 da             	neg    %rdx
  305206:	41 83 e8 01          	sub    $0x1,%r8d
  30520a:	c6 85 7e ff ff ff 2d 	movb   $0x2d,-0x82(%rbp)
  305211:	e9 ca fd ff ff       	jmpq   304fe0 <number.isra.1+0x80>
  305216:	48 89 d8             	mov    %rbx,%rax
  305219:	eb 8e                	jmp    3051a9 <number.isra.1+0x249>
  30521b:	4c 8d 7d 80          	lea    -0x80(%rbp),%r15
  30521f:	44 89 8d 70 ff ff ff 	mov    %r9d,-0x90(%rbp)
  305226:	44 89 85 74 ff ff ff 	mov    %r8d,-0x8c(%rbp)
  30522d:	48 89 d6             	mov    %rdx,%rsi
  305230:	48 b8 40 4e 30 00 00 	movabs $0x304e40,%rax
  305237:	00 00 00 
  30523a:	4c 89 ff             	mov    %r15,%rdi
  30523d:	ff d0                	callq  *%rax
  30523f:	4c 29 f8             	sub    %r15,%rax
  305242:	44 8b 8d 70 ff ff ff 	mov    -0x90(%rbp),%r9d
  305249:	89 c7                	mov    %eax,%edi
  30524b:	44 8d 50 ff          	lea    -0x1(%rax),%r10d
  30524f:	e9 12 fe ff ff       	jmpq   305066 <number.isra.1+0x106>
  305254:	66 90                	xchg   %ax,%ax
  305256:	66 2e 0f 1f 84 00 00 	nopw   %cs:0x0(%rax,%rax,1)
  30525d:	00 00 00 

0000000000305260 <printk_char>:
  305260:	55                   	push   %rbp
  305261:	48 89 e5             	mov    %rsp,%rbp
  305264:	41 57                	push   %r15
  305266:	41 56                	push   %r14
  305268:	41 55                	push   %r13
  30526a:	41 54                	push   %r12
  30526c:	49 89 fd             	mov    %rdi,%r13
  30526f:	53                   	push   %rbx
  305270:	48 83 ec 08          	sub    $0x8,%rsp
  305274:	83 fe 0a             	cmp    $0xa,%esi
  305277:	0f 84 8f 00 00 00    	je     30530c <printk_char+0xac>
  30527d:	85 f6                	test   %esi,%esi
  30527f:	41 89 f7             	mov    %esi,%r15d
  305282:	75 5e                	jne    3052e2 <printk_char+0x82>
  305284:	8b 87 80 00 00 00    	mov    0x80(%rdi),%eax
  30528a:	85 c0                	test   %eax,%eax
  30528c:	0f 84 aa 00 00 00    	je     30533c <printk_char+0xdc>
  305292:	4d 89 ec             	mov    %r13,%r12
  305295:	31 db                	xor    %ebx,%ebx
  305297:	49 be 20 8f 30 00 00 	movabs $0x308f20,%r14
  30529e:	00 00 00 
  3052a1:	0f 1f 80 00 00 00 00 	nopl   0x0(%rax)
  3052a8:	41 0f b6 3c 24       	movzbl (%r12),%edi
  3052ad:	83 c3 01             	add    $0x1,%ebx
  3052b0:	49 83 c4 01          	add    $0x1,%r12
  3052b4:	41 ff d6             	callq  *%r14
  3052b7:	41 39 9d 80 00 00 00 	cmp    %ebx,0x80(%r13)
  3052be:	77 e8                	ja     3052a8 <printk_char+0x48>
  3052c0:	41 c7 85 80 00 00 00 	movl   $0x0,0x80(%r13)
  3052c7:	00 00 00 00 
  3052cb:	48 83 c4 08          	add    $0x8,%rsp
  3052cf:	41 0f b6 ff          	movzbl %r15b,%edi
  3052d3:	5b                   	pop    %rbx
  3052d4:	4c 89 f0             	mov    %r14,%rax
  3052d7:	41 5c                	pop    %r12
  3052d9:	41 5d                	pop    %r13
  3052db:	41 5e                	pop    %r14
  3052dd:	41 5f                	pop    %r15
  3052df:	5d                   	pop    %rbp
  3052e0:	ff e0                	jmpq   *%rax
  3052e2:	8b 87 80 00 00 00    	mov    0x80(%rdi),%eax
  3052e8:	83 f8 7f             	cmp    $0x7f,%eax
  3052eb:	77 a5                	ja     305292 <printk_char+0x32>
  3052ed:	89 c2                	mov    %eax,%edx
  3052ef:	83 c0 01             	add    $0x1,%eax
  3052f2:	41 88 74 15 00       	mov    %sil,0x0(%r13,%rdx,1)
  3052f7:	89 87 80 00 00 00    	mov    %eax,0x80(%rdi)
  3052fd:	48 83 c4 08          	add    $0x8,%rsp
  305301:	5b                   	pop    %rbx
  305302:	41 5c                	pop    %r12
  305304:	41 5d                	pop    %r13
  305306:	41 5e                	pop    %r14
  305308:	41 5f                	pop    %r15
  30530a:	5d                   	pop    %rbp
  30530b:	c3                   	retq   
  30530c:	8b 87 80 00 00 00    	mov    0x80(%rdi),%eax
  305312:	c6 04 07 00          	movb   $0x0,(%rdi,%rax,1)
  305316:	48 b8 e0 90 30 00 00 	movabs $0x3090e0,%rax
  30531d:	00 00 00 
  305320:	ff d0                	callq  *%rax
  305322:	41 c7 85 80 00 00 00 	movl   $0x0,0x80(%r13)
  305329:	00 00 00 00 
  30532d:	48 83 c4 08          	add    $0x8,%rsp
  305331:	5b                   	pop    %rbx
  305332:	41 5c                	pop    %r12
  305334:	41 5d                	pop    %r13
  305336:	41 5e                	pop    %r14
  305338:	41 5f                	pop    %r15
  30533a:	5d                   	pop    %rbp
  30533b:	c3                   	retq   
  30533c:	49 be 20 8f 30 00 00 	movabs $0x308f20,%r14
  305343:	00 00 00 
  305346:	e9 75 ff ff ff       	jmpq   3052c0 <printk_char+0x60>
  30534b:	0f 1f 44 00 00       	nopl   0x0(%rax,%rax,1)

0000000000305350 <string.isra.3>:
  305350:	55                   	push   %rbp
  305351:	48 b8 da f4 34 00 00 	movabs $0x34f4da,%rax
  305358:	00 00 00 
  30535b:	48 89 e5             	mov    %rsp,%rbp
  30535e:	41 57                	push   %r15
  305360:	41 56                	push   %r14
  305362:	41 55                	push   %r13
  305364:	41 54                	push   %r12
  305366:	49 89 d4             	mov    %rdx,%r12
  305369:	53                   	push   %rbx
  30536a:	41 89 cf             	mov    %ecx,%r15d
  30536d:	48 89 fb             	mov    %rdi,%rbx
  305370:	49 89 f5             	mov    %rsi,%r13
  305373:	45 89 c6             	mov    %r8d,%r14d
  305376:	49 63 f1             	movslq %r9d,%rsi
  305379:	48 83 ec 08          	sub    $0x8,%rsp
  30537d:	48 81 fa ff 0f 00 00 	cmp    $0xfff,%rdx
  305384:	4c 0f 46 e0          	cmovbe %rax,%r12
  305388:	48 b8 c0 c9 30 00 00 	movabs $0x30c9c0,%rax
  30538f:	00 00 00 
  305392:	4c 89 e7             	mov    %r12,%rdi
  305395:	ff d0                	callq  *%rax
  305397:	41 83 e7 10          	and    $0x10,%r15d
  30539b:	75 30                	jne    3053cd <string.isra.3+0x7d>
  30539d:	44 39 f0             	cmp    %r14d,%eax
  3053a0:	41 8d 56 ff          	lea    -0x1(%r14),%edx
  3053a4:	0f 8d 96 00 00 00    	jge    305440 <string.isra.3+0xf0>
  3053aa:	29 c2                	sub    %eax,%edx
  3053ac:	48 8d 54 13 01       	lea    0x1(%rbx,%rdx,1),%rdx
  3053b1:	0f 1f 80 00 00 00 00 	nopl   0x0(%rax)
  3053b8:	49 39 dd             	cmp    %rbx,%r13
  3053bb:	76 03                	jbe    3053c0 <string.isra.3+0x70>
  3053bd:	c6 03 20             	movb   $0x20,(%rbx)
  3053c0:	48 83 c3 01          	add    $0x1,%rbx
  3053c4:	48 39 d3             	cmp    %rdx,%rbx
  3053c7:	75 ef                	jne    3053b8 <string.isra.3+0x68>
  3053c9:	44 8d 70 ff          	lea    -0x1(%rax),%r14d
  3053cd:	85 c0                	test   %eax,%eax
  3053cf:	7e 6a                	jle    30543b <string.isra.3+0xeb>
  3053d1:	8d 50 ff             	lea    -0x1(%rax),%edx
  3053d4:	48 8d 4c 13 01       	lea    0x1(%rbx,%rdx,1),%rcx
  3053d9:	0f 1f 80 00 00 00 00 	nopl   0x0(%rax)
  3053e0:	49 39 dd             	cmp    %rbx,%r13
  3053e3:	76 07                	jbe    3053ec <string.isra.3+0x9c>
  3053e5:	41 0f b6 14 24       	movzbl (%r12),%edx
  3053ea:	88 13                	mov    %dl,(%rbx)
  3053ec:	48 83 c3 01          	add    $0x1,%rbx
  3053f0:	49 83 c4 01          	add    $0x1,%r12
  3053f4:	48 39 cb             	cmp    %rcx,%rbx
  3053f7:	75 e7                	jne    3053e0 <string.isra.3+0x90>
  3053f9:	44 39 f0             	cmp    %r14d,%eax
  3053fc:	7d 2b                	jge    305429 <string.isra.3+0xd9>
  3053fe:	f7 d0                	not    %eax
  305400:	42 8d 14 30          	lea    (%rax,%r14,1),%edx
  305404:	48 8d 74 11 01       	lea    0x1(%rcx,%rdx,1),%rsi
  305409:	48 89 ca             	mov    %rcx,%rdx
  30540c:	0f 1f 40 00          	nopl   0x0(%rax)
  305410:	49 39 d5             	cmp    %rdx,%r13
  305413:	76 03                	jbe    305418 <string.isra.3+0xc8>
  305415:	c6 02 20             	movb   $0x20,(%rdx)
  305418:	48 83 c2 01          	add    $0x1,%rdx
  30541c:	48 39 f2             	cmp    %rsi,%rdx
  30541f:	75 ef                	jne    305410 <string.isra.3+0xc0>
  305421:	44 01 f0             	add    %r14d,%eax
  305424:	48 8d 4c 01 01       	lea    0x1(%rcx,%rax,1),%rcx
  305429:	48 83 c4 08          	add    $0x8,%rsp
  30542d:	48 89 c8             	mov    %rcx,%rax
  305430:	5b                   	pop    %rbx
  305431:	41 5c                	pop    %r12
  305433:	41 5d                	pop    %r13
  305435:	41 5e                	pop    %r14
  305437:	41 5f                	pop    %r15
  305439:	5d                   	pop    %rbp
  30543a:	c3                   	retq   
  30543b:	48 89 d9             	mov    %rbx,%rcx
  30543e:	eb b9                	jmp    3053f9 <string.isra.3+0xa9>
  305440:	41 89 d6             	mov    %edx,%r14d
  305443:	eb 88                	jmp    3053cd <string.isra.3+0x7d>
  305445:	90                   	nop
  305446:	66 2e 0f 1f 84 00 00 	nopw   %cs:0x0(%rax,%rax,1)
  30544d:	00 00 00 

0000000000305450 <vprintk>:
  305450:	55                   	push   %rbp
  305451:	31 d2                	xor    %edx,%edx
  305453:	48 b8 50 73 30 00 00 	movabs $0x307350,%rax
  30545a:	00 00 00 
  30545d:	48 b9 60 52 30 00 00 	movabs $0x305260,%rcx
  305464:	00 00 00 
  305467:	48 89 e5             	mov    %rsp,%rbp
  30546a:	41 55                	push   %r13
  30546c:	41 54                	push   %r12
  30546e:	53                   	push   %rbx
  30546f:	4c 8d 85 50 ff ff ff 	lea    -0xb0(%rbp),%r8
  305476:	48 81 ec 98 00 00 00 	sub    $0x98,%rsp
  30547d:	c7 45 d0 00 00 00 00 	movl   $0x0,-0x30(%rbp)
  305484:	ff d0                	callq  *%rax
  305486:	8b 45 d0             	mov    -0x30(%rbp),%eax
  305489:	85 c0                	test   %eax,%eax
  30548b:	74 2f                	je     3054bc <vprintk+0x6c>
  30548d:	48 8d 9d 50 ff ff ff 	lea    -0xb0(%rbp),%rbx
  305494:	45 31 e4             	xor    %r12d,%r12d
  305497:	49 bd 20 8f 30 00 00 	movabs $0x308f20,%r13
  30549e:	00 00 00 
  3054a1:	0f 1f 80 00 00 00 00 	nopl   0x0(%rax)
  3054a8:	0f b6 3b             	movzbl (%rbx),%edi
  3054ab:	41 83 c4 01          	add    $0x1,%r12d
  3054af:	48 83 c3 01          	add    $0x1,%rbx
  3054b3:	41 ff d5             	callq  *%r13
  3054b6:	44 39 65 d0          	cmp    %r12d,-0x30(%rbp)
  3054ba:	77 ec                	ja     3054a8 <vprintk+0x58>
  3054bc:	48 81 c4 98 00 00 00 	add    $0x98,%rsp
  3054c3:	31 c0                	xor    %eax,%eax
  3054c5:	5b                   	pop    %rbx
  3054c6:	41 5c                	pop    %r12
  3054c8:	41 5d                	pop    %r13
  3054ca:	5d                   	pop    %rbp
  3054cb:	c3                   	retq   
  3054cc:	0f 1f 40 00          	nopl   0x0(%rax)

00000000003054d0 <panic>:
  3054d0:	55                   	push   %rbp
  3054d1:	48 89 e5             	mov    %rsp,%rbp
  3054d4:	48 81 ec d0 00 00 00 	sub    $0xd0,%rsp
  3054db:	84 c0                	test   %al,%al
  3054dd:	48 89 b5 58 ff ff ff 	mov    %rsi,-0xa8(%rbp)
  3054e4:	48 89 95 60 ff ff ff 	mov    %rdx,-0xa0(%rbp)
  3054eb:	48 89 8d 68 ff ff ff 	mov    %rcx,-0x98(%rbp)
  3054f2:	4c 89 85 70 ff ff ff 	mov    %r8,-0x90(%rbp)
  3054f9:	4c 89 8d 78 ff ff ff 	mov    %r9,-0x88(%rbp)
  305500:	74 20                	je     305522 <panic+0x52>
  305502:	0f 29 45 80          	movaps %xmm0,-0x80(%rbp)
  305506:	0f 29 4d 90          	movaps %xmm1,-0x70(%rbp)
  30550a:	0f 29 55 a0          	movaps %xmm2,-0x60(%rbp)
  30550e:	0f 29 5d b0          	movaps %xmm3,-0x50(%rbp)
  305512:	0f 29 65 c0          	movaps %xmm4,-0x40(%rbp)
  305516:	0f 29 6d d0          	movaps %xmm5,-0x30(%rbp)
  30551a:	0f 29 75 e0          	movaps %xmm6,-0x20(%rbp)
  30551e:	0f 29 7d f0          	movaps %xmm7,-0x10(%rbp)
  305522:	48 8d 45 10          	lea    0x10(%rbp),%rax
  305526:	48 8d b5 38 ff ff ff 	lea    -0xc8(%rbp),%rsi
  30552d:	48 89 85 40 ff ff ff 	mov    %rax,-0xc0(%rbp)
  305534:	48 8d 85 50 ff ff ff 	lea    -0xb0(%rbp),%rax
  30553b:	c7 85 38 ff ff ff 08 	movl   $0x8,-0xc8(%rbp)
  305542:	00 00 00 
  305545:	c7 85 3c ff ff ff 30 	movl   $0x30,-0xc4(%rbp)
  30554c:	00 00 00 
  30554f:	48 89 85 48 ff ff ff 	mov    %rax,-0xb8(%rbp)
  305556:	48 b8 50 54 30 00 00 	movabs $0x305450,%rax
  30555d:	00 00 00 
  305560:	ff d0                	callq  *%rax
  305562:	fa                   	cli    
  305563:	eb fe                	jmp    305563 <panic+0x93>
  305565:	90                   	nop
  305566:	66 2e 0f 1f 84 00 00 	nopw   %cs:0x0(%rax,%rax,1)
  30556d:	00 00 00 

0000000000305570 <early_printk>:
  305570:	55                   	push   %rbp
  305571:	48 b8 50 54 30 00 00 	movabs $0x305450,%rax
  305578:	00 00 00 
  30557b:	48 89 e5             	mov    %rsp,%rbp
  30557e:	5d                   	pop    %rbp
  30557f:	ff e0                	jmpq   *%rax
  305581:	0f 1f 44 00 00       	nopl   0x0(%rax,%rax,1)
  305586:	66 2e 0f 1f 84 00 00 	nopw   %cs:0x0(%rax,%rax,1)
  30558d:	00 00 00 

0000000000305590 <printk>:
  305590:	55                   	push   %rbp
  305591:	48 89 e5             	mov    %rsp,%rbp
  305594:	48 81 ec d0 00 00 00 	sub    $0xd0,%rsp
  30559b:	84 c0                	test   %al,%al
  30559d:	48 89 b5 58 ff ff ff 	mov    %rsi,-0xa8(%rbp)
  3055a4:	48 89 95 60 ff ff ff 	mov    %rdx,-0xa0(%rbp)
  3055ab:	48 89 8d 68 ff ff ff 	mov    %rcx,-0x98(%rbp)
  3055b2:	4c 89 85 70 ff ff ff 	mov    %r8,-0x90(%rbp)
  3055b9:	4c 89 8d 78 ff ff ff 	mov    %r9,-0x88(%rbp)
  3055c0:	74 20                	je     3055e2 <printk+0x52>
  3055c2:	0f 29 45 80          	movaps %xmm0,-0x80(%rbp)
  3055c6:	0f 29 4d 90          	movaps %xmm1,-0x70(%rbp)
  3055ca:	0f 29 55 a0          	movaps %xmm2,-0x60(%rbp)
  3055ce:	0f 29 5d b0          	movaps %xmm3,-0x50(%rbp)
  3055d2:	0f 29 65 c0          	movaps %xmm4,-0x40(%rbp)
  3055d6:	0f 29 6d d0          	movaps %xmm5,-0x30(%rbp)
  3055da:	0f 29 75 e0          	movaps %xmm6,-0x20(%rbp)
  3055de:	0f 29 7d f0          	movaps %xmm7,-0x10(%rbp)
  3055e2:	48 8d 45 10          	lea    0x10(%rbp),%rax
  3055e6:	48 8d b5 38 ff ff ff 	lea    -0xc8(%rbp),%rsi
  3055ed:	48 89 85 40 ff ff ff 	mov    %rax,-0xc0(%rbp)
  3055f4:	48 8d 85 50 ff ff ff 	lea    -0xb0(%rbp),%rax
  3055fb:	c7 85 38 ff ff ff 08 	movl   $0x8,-0xc8(%rbp)
  305602:	00 00 00 
  305605:	c7 85 3c ff ff ff 30 	movl   $0x30,-0xc4(%rbp)
  30560c:	00 00 00 
  30560f:	48 89 85 48 ff ff ff 	mov    %rax,-0xb8(%rbp)
  305616:	48 b8 50 54 30 00 00 	movabs $0x305450,%rax
  30561d:	00 00 00 
  305620:	ff d0                	callq  *%rax
  305622:	c9                   	leaveq 
  305623:	c3                   	retq   
  305624:	66 90                	xchg   %ax,%ax
  305626:	66 2e 0f 1f 84 00 00 	nopw   %cs:0x0(%rax,%rax,1)
  30562d:	00 00 00 

0000000000305630 <simple_strtoull>:
  305630:	55                   	push   %rbp
  305631:	85 d2                	test   %edx,%edx
  305633:	0f b6 0f             	movzbl (%rdi),%ecx
  305636:	48 89 e5             	mov    %rsp,%rbp
  305639:	0f 85 81 00 00 00    	jne    3056c0 <simple_strtoull+0x90>
  30563f:	80 f9 30             	cmp    $0x30,%cl
  305642:	ba 0a 00 00 00       	mov    $0xa,%edx
  305647:	49 b9 20 82 34 00 00 	movabs $0x348220,%r9
  30564e:	00 00 00 
  305651:	0f 84 99 00 00 00    	je     3056f0 <simple_strtoull+0xc0>
  305657:	0f b6 c1             	movzbl %cl,%eax
  30565a:	45 0f b6 04 01       	movzbl (%r9,%rax,1),%r8d
  30565f:	31 c0                	xor    %eax,%eax
  305661:	41 f6 c0 44          	test   $0x44,%r8b
  305665:	74 47                	je     3056ae <simple_strtoull+0x7e>
  305667:	41 89 d2             	mov    %edx,%r10d
  30566a:	eb 2d                	jmp    305699 <simple_strtoull+0x69>
  30566c:	0f 1f 40 00          	nopl   0x0(%rax)
  305670:	44 0f be c1          	movsbl %cl,%r8d
  305674:	41 8d 48 d0          	lea    -0x30(%r8),%ecx
  305678:	39 d1                	cmp    %edx,%ecx
  30567a:	73 32                	jae    3056ae <simple_strtoull+0x7e>
  30567c:	48 83 c7 01          	add    $0x1,%rdi
  305680:	44 0f b6 07          	movzbl (%rdi),%r8d
  305684:	49 0f af c2          	imul   %r10,%rax
  305688:	48 01 c8             	add    %rcx,%rax
  30568b:	4c 89 c1             	mov    %r8,%rcx
  30568e:	47 0f b6 04 01       	movzbl (%r9,%r8,1),%r8d
  305693:	41 f6 c0 44          	test   $0x44,%r8b
  305697:	74 15                	je     3056ae <simple_strtoull+0x7e>
  305699:	41 83 e0 04          	and    $0x4,%r8d
  30569d:	75 d1                	jne    305670 <simple_strtoull+0x40>
  30569f:	83 c9 20             	or     $0x20,%ecx
  3056a2:	44 0f be c1          	movsbl %cl,%r8d
  3056a6:	41 8d 48 a9          	lea    -0x57(%r8),%ecx
  3056aa:	39 d1                	cmp    %edx,%ecx
  3056ac:	72 ce                	jb     30567c <simple_strtoull+0x4c>
  3056ae:	48 85 f6             	test   %rsi,%rsi
  3056b1:	74 03                	je     3056b6 <simple_strtoull+0x86>
  3056b3:	48 89 3e             	mov    %rdi,(%rsi)
  3056b6:	5d                   	pop    %rbp
  3056b7:	c3                   	retq   
  3056b8:	0f 1f 84 00 00 00 00 	nopl   0x0(%rax,%rax,1)
  3056bf:	00 
  3056c0:	83 fa 10             	cmp    $0x10,%edx
  3056c3:	49 b9 20 82 34 00 00 	movabs $0x348220,%r9
  3056ca:	00 00 00 
  3056cd:	75 88                	jne    305657 <simple_strtoull+0x27>
  3056cf:	80 f9 30             	cmp    $0x30,%cl
  3056d2:	0f 85 7f ff ff ff    	jne    305657 <simple_strtoull+0x27>
  3056d8:	0f b6 47 01          	movzbl 0x1(%rdi),%eax
  3056dc:	83 c8 20             	or     $0x20,%eax
  3056df:	3c 78                	cmp    $0x78,%al
  3056e1:	0f 85 70 ff ff ff    	jne    305657 <simple_strtoull+0x27>
  3056e7:	eb 2a                	jmp    305713 <simple_strtoull+0xe3>
  3056e9:	0f 1f 80 00 00 00 00 	nopl   0x0(%rax)
  3056f0:	0f b6 47 01          	movzbl 0x1(%rdi),%eax
  3056f4:	ba 08 00 00 00       	mov    $0x8,%edx
  3056f9:	83 c8 20             	or     $0x20,%eax
  3056fc:	3c 78                	cmp    $0x78,%al
  3056fe:	0f 85 53 ff ff ff    	jne    305657 <simple_strtoull+0x27>
  305704:	0f b6 47 02          	movzbl 0x2(%rdi),%eax
  305708:	41 f6 04 01 44       	testb  $0x44,(%r9,%rax,1)
  30570d:	0f 84 44 ff ff ff    	je     305657 <simple_strtoull+0x27>
  305713:	0f b6 4f 02          	movzbl 0x2(%rdi),%ecx
  305717:	ba 10 00 00 00       	mov    $0x10,%edx
  30571c:	48 83 c7 02          	add    $0x2,%rdi
  305720:	e9 32 ff ff ff       	jmpq   305657 <simple_strtoull+0x27>
  305725:	90                   	nop
  305726:	66 2e 0f 1f 84 00 00 	nopw   %cs:0x0(%rax,%rax,1)
  30572d:	00 00 00 

0000000000305730 <simple_strtoul>:
  305730:	55                   	push   %rbp
  305731:	48 b8 30 56 30 00 00 	movabs $0x305630,%rax
  305738:	00 00 00 
  30573b:	48 89 e5             	mov    %rsp,%rbp
  30573e:	5d                   	pop    %rbp
  30573f:	ff e0                	jmpq   *%rax
  305741:	0f 1f 44 00 00       	nopl   0x0(%rax,%rax,1)
  305746:	66 2e 0f 1f 84 00 00 	nopw   %cs:0x0(%rax,%rax,1)
  30574d:	00 00 00 

0000000000305750 <simple_strtoll>:
  305750:	80 3f 2d             	cmpb   $0x2d,(%rdi)
  305753:	74 13                	je     305768 <simple_strtoll+0x18>
  305755:	48 b8 30 56 30 00 00 	movabs $0x305630,%rax
  30575c:	00 00 00 
  30575f:	ff e0                	jmpq   *%rax
  305761:	0f 1f 80 00 00 00 00 	nopl   0x0(%rax)
  305768:	55                   	push   %rbp
  305769:	48 83 c7 01          	add    $0x1,%rdi
  30576d:	48 b8 30 56 30 00 00 	movabs $0x305630,%rax
  305774:	00 00 00 
  305777:	48 89 e5             	mov    %rsp,%rbp
  30577a:	ff d0                	callq  *%rax
  30577c:	5d                   	pop    %rbp
  30577d:	48 f7 d8             	neg    %rax
  305780:	c3                   	retq   
  305781:	0f 1f 44 00 00       	nopl   0x0(%rax,%rax,1)
  305786:	66 2e 0f 1f 84 00 00 	nopw   %cs:0x0(%rax,%rax,1)
  30578d:	00 00 00 

0000000000305790 <simple_strtol>:
  305790:	55                   	push   %rbp
  305791:	48 b8 50 57 30 00 00 	movabs $0x305750,%rax
  305798:	00 00 00 
  30579b:	48 89 e5             	mov    %rsp,%rbp
  30579e:	5d                   	pop    %rbp
  30579f:	ff e0                	jmpq   *%rax
  3057a1:	0f 1f 44 00 00       	nopl   0x0(%rax,%rax,1)
  3057a6:	66 2e 0f 1f 84 00 00 	nopw   %cs:0x0(%rax,%rax,1)
  3057ad:	00 00 00 

00000000003057b0 <strict_strtoull>:
  3057b0:	55                   	push   %rbp
  3057b1:	48 b8 a0 c9 30 00 00 	movabs $0x30c9a0,%rax
  3057b8:	00 00 00 
  3057bb:	48 89 e5             	mov    %rsp,%rbp
  3057be:	41 55                	push   %r13
  3057c0:	41 54                	push   %r12
  3057c2:	53                   	push   %rbx
  3057c3:	41 89 f5             	mov    %esi,%r13d
  3057c6:	48 89 fb             	mov    %rdi,%rbx
  3057c9:	49 89 d4             	mov    %rdx,%r12
  3057cc:	48 83 ec 18          	sub    $0x18,%rsp
  3057d0:	48 c7 02 00 00 00 00 	movq   $0x0,(%rdx)
  3057d7:	ff d0                	callq  *%rax
  3057d9:	48 85 c0             	test   %rax,%rax
  3057dc:	74 53                	je     305831 <strict_strtoull+0x81>
  3057de:	49 89 c3             	mov    %rax,%r11
  3057e1:	44 89 ea             	mov    %r13d,%edx
  3057e4:	48 8d 75 d8          	lea    -0x28(%rbp),%rsi
  3057e8:	48 89 df             	mov    %rbx,%rdi
  3057eb:	48 b8 30 56 30 00 00 	movabs $0x305630,%rax
  3057f2:	00 00 00 
  3057f5:	ff d0                	callq  *%rax
  3057f7:	48 8b 55 d8          	mov    -0x28(%rbp),%rdx
  3057fb:	48 39 d3             	cmp    %rdx,%rbx
  3057fe:	74 31                	je     305831 <strict_strtoull+0x81>
  305800:	0f b6 0a             	movzbl (%rdx),%ecx
  305803:	84 c9                	test   %cl,%cl
  305805:	75 19                	jne    305820 <strict_strtoull+0x70>
  305807:	49 89 04 24          	mov    %rax,(%r12)
  30580b:	48 83 c4 18          	add    $0x18,%rsp
  30580f:	31 c0                	xor    %eax,%eax
  305811:	5b                   	pop    %rbx
  305812:	41 5c                	pop    %r12
  305814:	41 5d                	pop    %r13
  305816:	5d                   	pop    %rbp
  305817:	c3                   	retq   
  305818:	0f 1f 84 00 00 00 00 	nopl   0x0(%rax,%rax,1)
  30581f:	00 
  305820:	48 29 da             	sub    %rbx,%rdx
  305823:	48 83 c2 01          	add    $0x1,%rdx
  305827:	4c 39 da             	cmp    %r11,%rdx
  30582a:	75 05                	jne    305831 <strict_strtoull+0x81>
  30582c:	80 f9 0a             	cmp    $0xa,%cl
  30582f:	74 d6                	je     305807 <strict_strtoull+0x57>
  305831:	48 83 c4 18          	add    $0x18,%rsp
  305835:	b8 ea ff ff ff       	mov    $0xffffffea,%eax
  30583a:	5b                   	pop    %rbx
  30583b:	41 5c                	pop    %r12
  30583d:	41 5d                	pop    %r13
  30583f:	5d                   	pop    %rbp
  305840:	c3                   	retq   
  305841:	0f 1f 44 00 00       	nopl   0x0(%rax,%rax,1)
  305846:	66 2e 0f 1f 84 00 00 	nopw   %cs:0x0(%rax,%rax,1)
  30584d:	00 00 00 

0000000000305850 <strict_strtoul>:
  305850:	55                   	push   %rbp
  305851:	48 b8 b0 57 30 00 00 	movabs $0x3057b0,%rax
  305858:	00 00 00 
  30585b:	48 89 e5             	mov    %rsp,%rbp
  30585e:	5d                   	pop    %rbp
  30585f:	ff e0                	jmpq   *%rax
  305861:	0f 1f 44 00 00       	nopl   0x0(%rax,%rax,1)
  305866:	66 2e 0f 1f 84 00 00 	nopw   %cs:0x0(%rax,%rax,1)
  30586d:	00 00 00 

0000000000305870 <strict_strtoll>:
  305870:	80 3f 2d             	cmpb   $0x2d,(%rdi)
  305873:	74 13                	je     305888 <strict_strtoll+0x18>
  305875:	48 b8 b0 57 30 00 00 	movabs $0x3057b0,%rax
  30587c:	00 00 00 
  30587f:	ff e0                	jmpq   *%rax
  305881:	0f 1f 80 00 00 00 00 	nopl   0x0(%rax)
  305888:	55                   	push   %rbp
  305889:	48 83 c7 01          	add    $0x1,%rdi
  30588d:	48 b8 b0 57 30 00 00 	movabs $0x3057b0,%rax
  305894:	00 00 00 
  305897:	48 89 e5             	mov    %rsp,%rbp
  30589a:	53                   	push   %rbx
  30589b:	48 89 d3             	mov    %rdx,%rbx
  30589e:	48 83 ec 08          	sub    $0x8,%rsp
  3058a2:	ff d0                	callq  *%rax
  3058a4:	85 c0                	test   %eax,%eax
  3058a6:	75 03                	jne    3058ab <strict_strtoll+0x3b>
  3058a8:	48 f7 1b             	negq   (%rbx)
  3058ab:	48 83 c4 08          	add    $0x8,%rsp
  3058af:	5b                   	pop    %rbx
  3058b0:	5d                   	pop    %rbp
  3058b1:	c3                   	retq   
  3058b2:	0f 1f 40 00          	nopl   0x0(%rax)
  3058b6:	66 2e 0f 1f 84 00 00 	nopw   %cs:0x0(%rax,%rax,1)
  3058bd:	00 00 00 

00000000003058c0 <strict_strtol>:
  3058c0:	55                   	push   %rbp
  3058c1:	48 b8 70 58 30 00 00 	movabs $0x305870,%rax
  3058c8:	00 00 00 
  3058cb:	48 89 e5             	mov    %rsp,%rbp
  3058ce:	5d                   	pop    %rbp
  3058cf:	ff e0                	jmpq   *%rax
  3058d1:	0f 1f 44 00 00       	nopl   0x0(%rax,%rax,1)
  3058d6:	66 2e 0f 1f 84 00 00 	nopw   %cs:0x0(%rax,%rax,1)
  3058dd:	00 00 00 

00000000003058e0 <vsscanf>:
  3058e0:	55                   	push   %rbp
  3058e1:	48 89 f9             	mov    %rdi,%rcx
  3058e4:	49 bb 20 82 34 00 00 	movabs $0x348220,%r11
  3058eb:	00 00 00 
  3058ee:	49 b8 20 a6 34 00 00 	movabs $0x34a620,%r8
  3058f5:	00 00 00 
  3058f8:	48 89 e5             	mov    %rsp,%rbp
  3058fb:	41 57                	push   %r15
  3058fd:	41 56                	push   %r14
  3058ff:	41 55                	push   %r13
  305901:	41 54                	push   %r12
  305903:	49 89 d7             	mov    %rdx,%r15
  305906:	53                   	push   %rbx
  305907:	45 31 f6             	xor    %r14d,%r14d
  30590a:	48 89 f3             	mov    %rsi,%rbx
  30590d:	49 bd 30 56 30 00 00 	movabs $0x305630,%r13
  305914:	00 00 00 
  305917:	48 83 ec 30          	sub    $0x30,%rsp
  30591b:	0f b6 16             	movzbl (%rsi),%edx
  30591e:	84 d2                	test   %dl,%dl
  305920:	74 39                	je     30595b <vsscanf+0x7b>
  305922:	0f b6 37             	movzbl (%rdi),%esi
  305925:	40 84 f6             	test   %sil,%sil
  305928:	0f 84 74 07 00 00    	je     3060a2 <vsscanf+0x7c2>
  30592e:	0f b6 c2             	movzbl %dl,%eax
  305931:	41 f6 04 03 20       	testb  $0x20,(%r11,%rax,1)
  305936:	75 38                	jne    305970 <vsscanf+0x90>
  305938:	80 fa 25             	cmp    $0x25,%dl
  30593b:	74 7f                	je     3059bc <vsscanf+0xdc>
  30593d:	48 83 c7 01          	add    $0x1,%rdi
  305941:	40 38 f2             	cmp    %sil,%dl
  305944:	4c 8d 63 01          	lea    0x1(%rbx),%r12
  305948:	0f b6 53 01          	movzbl 0x1(%rbx),%edx
  30594c:	0f 84 56 01 00 00    	je     305aa8 <vsscanf+0x1c8>
  305952:	80 fa 25             	cmp    $0x25,%dl
  305955:	0f 84 15 01 00 00    	je     305a70 <vsscanf+0x190>
  30595b:	48 83 c4 30          	add    $0x30,%rsp
  30595f:	44 89 f0             	mov    %r14d,%eax
  305962:	5b                   	pop    %rbx
  305963:	41 5c                	pop    %r12
  305965:	41 5d                	pop    %r13
  305967:	41 5e                	pop    %r14
  305969:	41 5f                	pop    %r15
  30596b:	5d                   	pop    %rbp
  30596c:	c3                   	retq   
  30596d:	0f 1f 00             	nopl   (%rax)
  305970:	48 83 c3 01          	add    $0x1,%rbx
  305974:	0f b6 03             	movzbl (%rbx),%eax
  305977:	41 f6 04 03 20       	testb  $0x20,(%r11,%rax,1)
  30597c:	48 89 c2             	mov    %rax,%rdx
  30597f:	75 ef                	jne    305970 <vsscanf+0x90>
  305981:	48 b8 20 82 34 00 00 	movabs $0x348220,%rax
  305988:	00 00 00 
  30598b:	f6 04 30 20          	testb  $0x20,(%rax,%rsi,1)
  30598f:	74 15                	je     3059a6 <vsscanf+0xc6>
  305991:	0f 1f 80 00 00 00 00 	nopl   0x0(%rax)
  305998:	48 83 c7 01          	add    $0x1,%rdi
  30599c:	0f b6 07             	movzbl (%rdi),%eax
  30599f:	41 f6 04 03 20       	testb  $0x20,(%r11,%rax,1)
  3059a4:	75 f2                	jne    305998 <vsscanf+0xb8>
  3059a6:	80 fa 25             	cmp    $0x25,%dl
  3059a9:	74 0d                	je     3059b8 <vsscanf+0xd8>
  3059ab:	84 d2                	test   %dl,%dl
  3059ad:	74 09                	je     3059b8 <vsscanf+0xd8>
  3059af:	0f b6 37             	movzbl (%rdi),%esi
  3059b2:	eb 89                	jmp    30593d <vsscanf+0x5d>
  3059b4:	0f 1f 40 00          	nopl   0x0(%rax)
  3059b8:	84 d2                	test   %dl,%dl
  3059ba:	74 9f                	je     30595b <vsscanf+0x7b>
  3059bc:	0f b6 53 01          	movzbl 0x1(%rbx),%edx
  3059c0:	4c 8d 63 01          	lea    0x1(%rbx),%r12
  3059c4:	80 fa 2a             	cmp    $0x2a,%dl
  3059c7:	0f 84 e3 00 00 00    	je     305ab0 <vsscanf+0x1d0>
  3059cd:	0f b6 c2             	movzbl %dl,%eax
  3059d0:	be ff ff ff ff       	mov    $0xffffffff,%esi
  3059d5:	41 f6 04 03 04       	testb  $0x4,(%r11,%rax,1)
  3059da:	74 21                	je     3059fd <vsscanf+0x11d>
  3059dc:	31 f6                	xor    %esi,%esi
  3059de:	66 90                	xchg   %ax,%ax
  3059e0:	8d 04 b6             	lea    (%rsi,%rsi,4),%eax
  3059e3:	49 83 c4 01          	add    $0x1,%r12
  3059e7:	0f be d2             	movsbl %dl,%edx
  3059ea:	8d 74 42 d0          	lea    -0x30(%rdx,%rax,2),%esi
  3059ee:	41 0f b6 04 24       	movzbl (%r12),%eax
  3059f3:	41 f6 04 03 04       	testb  $0x4,(%r11,%rax,1)
  3059f8:	48 89 c2             	mov    %rax,%rdx
  3059fb:	75 e3                	jne    3059e0 <vsscanf+0x100>
  3059fd:	8d 42 b4             	lea    -0x4c(%rdx),%eax
  305a00:	41 b9 ff ff ff ff    	mov    $0xffffffff,%r9d
  305a06:	3c 2e                	cmp    $0x2e,%al
  305a08:	76 2e                	jbe    305a38 <vsscanf+0x158>
  305a0a:	84 d2                	test   %dl,%dl
  305a0c:	0f 84 49 ff ff ff    	je     30595b <vsscanf+0x7b>
  305a12:	0f b6 07             	movzbl (%rdi),%eax
  305a15:	84 c0                	test   %al,%al
  305a17:	0f 84 35 ff ff ff    	je     305952 <vsscanf+0x72>
  305a1d:	83 ea 25             	sub    $0x25,%edx
  305a20:	49 8d 5c 24 01       	lea    0x1(%r12),%rbx
  305a25:	80 fa 53             	cmp    $0x53,%dl
  305a28:	0f 87 2d ff ff ff    	ja     30595b <vsscanf+0x7b>
  305a2e:	0f b6 d2             	movzbl %dl,%edx
  305a31:	41 ff 24 d0          	jmpq   *(%r8,%rdx,8)
  305a35:	0f 1f 00             	nopl   (%rax)
  305a38:	49 ba 01 40 00 10 01 	movabs $0x400110004001,%r10
  305a3f:	40 00 00 
  305a42:	49 0f a3 c2          	bt     %rax,%r10
  305a46:	73 c2                	jae    305a0a <vsscanf+0x12a>
  305a48:	41 0f be 44 24 01    	movsbl 0x1(%r12),%eax
  305a4e:	44 0f be ca          	movsbl %dl,%r9d
  305a52:	4d 8d 54 24 01       	lea    0x1(%r12),%r10
  305a57:	41 39 c1             	cmp    %eax,%r9d
  305a5a:	89 c2                	mov    %eax,%edx
  305a5c:	0f 84 ef 04 00 00    	je     305f51 <vsscanf+0x671>
  305a62:	4d 89 d4             	mov    %r10,%r12
  305a65:	eb a3                	jmp    305a0a <vsscanf+0x12a>
  305a67:	66 0f 1f 84 00 00 00 	nopw   0x0(%rax,%rax,1)
  305a6e:	00 00 
  305a70:	41 80 7c 24 01 6e    	cmpb   $0x6e,0x1(%r12)
  305a76:	0f 85 df fe ff ff    	jne    30595b <vsscanf+0x7b>
  305a7c:	41 8b 07             	mov    (%r15),%eax
  305a7f:	83 f8 2f             	cmp    $0x2f,%eax
  305a82:	0f 87 b8 04 00 00    	ja     305f40 <vsscanf+0x660>
  305a88:	89 c2                	mov    %eax,%edx
  305a8a:	49 03 57 10          	add    0x10(%r15),%rdx
  305a8e:	83 c0 08             	add    $0x8,%eax
  305a91:	41 89 07             	mov    %eax,(%r15)
  305a94:	48 8b 02             	mov    (%rdx),%rax
  305a97:	48 29 cf             	sub    %rcx,%rdi
  305a9a:	89 38                	mov    %edi,(%rax)
  305a9c:	e9 ba fe ff ff       	jmpq   30595b <vsscanf+0x7b>
  305aa1:	0f 1f 80 00 00 00 00 	nopl   0x0(%rax)
  305aa8:	4c 89 e3             	mov    %r12,%rbx
  305aab:	e9 6e fe ff ff       	jmpq   30591e <vsscanf+0x3e>
  305ab0:	a0 4a 82 34 00 00 00 	movabs 0x34824a,%al
  305ab7:	00 00 
  305ab9:	a8 20                	test   $0x20,%al
  305abb:	74 13                	je     305ad0 <vsscanf+0x1f0>
  305abd:	eb 24                	jmp    305ae3 <vsscanf+0x203>
  305abf:	90                   	nop
  305ac0:	84 c0                	test   %al,%al
  305ac2:	40 0f 95 c6          	setne  %sil
  305ac6:	3c 25                	cmp    $0x25,%al
  305ac8:	0f 95 c0             	setne  %al
  305acb:	40 84 c6             	test   %al,%sil
  305ace:	74 13                	je     305ae3 <vsscanf+0x203>
  305ad0:	49 83 c4 01          	add    $0x1,%r12
  305ad4:	41 0f b6 04 24       	movzbl (%r12),%eax
  305ad9:	41 f6 04 03 20       	testb  $0x20,(%r11,%rax,1)
  305ade:	48 89 c2             	mov    %rax,%rdx
  305ae1:	74 dd                	je     305ac0 <vsscanf+0x1e0>
  305ae3:	4c 89 e3             	mov    %r12,%rbx
  305ae6:	eb 14                	jmp    305afc <vsscanf+0x21c>
  305ae8:	0f 1f 84 00 00 00 00 	nopl   0x0(%rax,%rax,1)
  305aef:	00 
  305af0:	84 c0                	test   %al,%al
  305af2:	0f 84 26 fe ff ff    	je     30591e <vsscanf+0x3e>
  305af8:	48 83 c7 01          	add    $0x1,%rdi
  305afc:	0f b6 37             	movzbl (%rdi),%esi
  305aff:	41 f6 04 33 20       	testb  $0x20,(%r11,%rsi,1)
  305b04:	48 89 f0             	mov    %rsi,%rax
  305b07:	74 e7                	je     305af0 <vsscanf+0x210>
  305b09:	e9 10 fe ff ff       	jmpq   30591e <vsscanf+0x3e>
  305b0e:	ba 10 00 00 00       	mov    $0x10,%edx
  305b13:	0f b6 f0             	movzbl %al,%esi
  305b16:	45 31 d2             	xor    %r10d,%r10d
  305b19:	c7 45 c0 00 00 00 00 	movl   $0x0,-0x40(%rbp)
  305b20:	41 f6 04 33 20       	testb  $0x20,(%r11,%rsi,1)
  305b25:	0f 84 f0 05 00 00    	je     30611b <vsscanf+0x83b>
  305b2b:	0f 1f 44 00 00       	nopl   0x0(%rax,%rax,1)
  305b30:	48 83 c7 01          	add    $0x1,%rdi
  305b34:	0f b6 37             	movzbl (%rdi),%esi
  305b37:	41 f6 04 33 20       	testb  $0x20,(%r11,%rsi,1)
  305b3c:	48 89 f0             	mov    %rsi,%rax
  305b3f:	75 ef                	jne    305b30 <vsscanf+0x250>
  305b41:	40 80 fe 2d          	cmp    $0x2d,%sil
  305b45:	0f 85 dd 03 00 00    	jne    305f28 <vsscanf+0x648>
  305b4b:	45 84 d2             	test   %r10b,%r10b
  305b4e:	0f 84 d4 03 00 00    	je     305f28 <vsscanf+0x648>
  305b54:	0f b6 47 01          	movzbl 0x1(%rdi),%eax
  305b58:	48 89 7d b8          	mov    %rdi,-0x48(%rbp)
  305b5c:	84 c0                	test   %al,%al
  305b5e:	0f 84 b0 03 00 00    	je     305f14 <vsscanf+0x634>
  305b64:	83 fa 10             	cmp    $0x10,%edx
  305b67:	0f 84 c4 03 00 00    	je     305f31 <vsscanf+0x651>
  305b6d:	83 fa 0a             	cmp    $0xa,%edx
  305b70:	0f 84 93 03 00 00    	je     305f09 <vsscanf+0x629>
  305b76:	83 fa 08             	cmp    $0x8,%edx
  305b79:	0f 85 82 03 00 00    	jne    305f01 <vsscanf+0x621>
  305b7f:	0f b6 f0             	movzbl %al,%esi
  305b82:	41 f6 04 33 04       	testb  $0x4,(%r11,%rsi,1)
  305b87:	0f 84 87 03 00 00    	je     305f14 <vsscanf+0x634>
  305b8d:	3c 37                	cmp    $0x37,%al
  305b8f:	0f 8f 7f 03 00 00    	jg     305f14 <vsscanf+0x634>
  305b95:	41 83 e9 48          	sub    $0x48,%r9d
  305b99:	41 83 f9 32          	cmp    $0x32,%r9d
  305b9d:	0f 87 0b 03 00 00    	ja     305eae <vsscanf+0x5ce>
  305ba3:	48 b8 c0 a8 34 00 00 	movabs $0x34a8c0,%rax
  305baa:	00 00 00 
  305bad:	42 ff 24 c8          	jmpq   *(%rax,%r9,8)
  305bb1:	0f 1f 80 00 00 00 00 	nopl   0x0(%rax)
  305bb8:	44 8b 4d c0          	mov    -0x40(%rbp),%r9d
  305bbc:	41 8b 07             	mov    (%r15),%eax
  305bbf:	45 85 c9             	test   %r9d,%r9d
  305bc2:	0f 84 89 02 00 00    	je     305e51 <vsscanf+0x571>
  305bc8:	83 f8 2f             	cmp    $0x2f,%eax
  305bcb:	0f 87 6b 04 00 00    	ja     30603c <vsscanf+0x75c>
  305bd1:	89 c6                	mov    %eax,%esi
  305bd3:	49 03 77 10          	add    0x10(%r15),%rsi
  305bd7:	83 c0 08             	add    $0x8,%eax
  305bda:	41 89 07             	mov    %eax,(%r15)
  305bdd:	48 89 4d a8          	mov    %rcx,-0x58(%rbp)
  305be1:	4c 89 45 b0          	mov    %r8,-0x50(%rbp)
  305be5:	48 b8 50 57 30 00 00 	movabs $0x305750,%rax
  305bec:	00 00 00 
  305bef:	4c 8b 0e             	mov    (%rsi),%r9
  305bf2:	48 8d 75 d0          	lea    -0x30(%rbp),%rsi
  305bf6:	4c 89 4d c0          	mov    %r9,-0x40(%rbp)
  305bfa:	ff d0                	callq  *%rax
  305bfc:	4c 8b 4d c0          	mov    -0x40(%rbp),%r9
  305c00:	49 89 01             	mov    %rax,(%r9)
  305c03:	4c 8b 45 b0          	mov    -0x50(%rbp),%r8
  305c07:	48 8b 4d a8          	mov    -0x58(%rbp),%rcx
  305c0b:	e9 7b 02 00 00       	jmpq   305e8b <vsscanf+0x5ab>
  305c10:	41 ba 01 00 00 00    	mov    $0x1,%r10d
  305c16:	c7 45 c0 01 00 00 00 	movl   $0x1,-0x40(%rbp)
  305c1d:	ba 0a 00 00 00       	mov    $0xa,%edx
  305c22:	0f b6 f0             	movzbl %al,%esi
  305c25:	41 f6 04 33 20       	testb  $0x20,(%r11,%rsi,1)
  305c2a:	0f 85 00 ff ff ff    	jne    305b30 <vsscanf+0x250>
  305c30:	3c 2d                	cmp    $0x2d,%al
  305c32:	75 09                	jne    305c3d <vsscanf+0x35d>
  305c34:	45 84 d2             	test   %r10b,%r10b
  305c37:	0f 85 17 ff ff ff    	jne    305b54 <vsscanf+0x274>
  305c3d:	48 89 7d b8          	mov    %rdi,-0x48(%rbp)
  305c41:	e9 27 ff ff ff       	jmpq   305b6d <vsscanf+0x28d>
  305c46:	66 2e 0f 1f 84 00 00 	nopw   %cs:0x0(%rax,%rax,1)
  305c4d:	00 00 00 
  305c50:	41 ba 01 00 00 00    	mov    $0x1,%r10d
  305c56:	c7 45 c0 01 00 00 00 	movl   $0x1,-0x40(%rbp)
  305c5d:	31 d2                	xor    %edx,%edx
  305c5f:	eb c1                	jmp    305c22 <vsscanf+0x342>
  305c61:	41 8b 07             	mov    (%r15),%eax
  305c64:	83 f8 2f             	cmp    $0x2f,%eax
  305c67:	0f 87 2f 03 00 00    	ja     305f9c <vsscanf+0x6bc>
  305c6d:	89 c2                	mov    %eax,%edx
  305c6f:	49 03 57 10          	add    0x10(%r15),%rdx
  305c73:	83 c0 08             	add    $0x8,%eax
  305c76:	41 89 07             	mov    %eax,(%r15)
  305c79:	48 8b 02             	mov    (%rdx),%rax
  305c7c:	48 89 fa             	mov    %rdi,%rdx
  305c7f:	48 29 ca             	sub    %rcx,%rdx
  305c82:	89 10                	mov    %edx,(%rax)
  305c84:	41 0f b6 54 24 01    	movzbl 0x1(%r12),%edx
  305c8a:	e9 8f fc ff ff       	jmpq   30591e <vsscanf+0x3e>
  305c8f:	ba 08 00 00 00       	mov    $0x8,%edx
  305c94:	e9 7a fe ff ff       	jmpq   305b13 <vsscanf+0x233>
  305c99:	41 8b 07             	mov    (%r15),%eax
  305c9c:	83 f8 2f             	cmp    $0x2f,%eax
  305c9f:	0f 87 08 03 00 00    	ja     305fad <vsscanf+0x6cd>
  305ca5:	89 c2                	mov    %eax,%edx
  305ca7:	49 03 57 10          	add    0x10(%r15),%rdx
  305cab:	83 c0 08             	add    $0x8,%eax
  305cae:	41 89 07             	mov    %eax,(%r15)
  305cb1:	44 0f b6 0f          	movzbl (%rdi),%r9d
  305cb5:	83 fe ff             	cmp    $0xffffffff,%esi
  305cb8:	b8 ff ff ff 7f       	mov    $0x7fffffff,%eax
  305cbd:	0f 44 f0             	cmove  %eax,%esi
  305cc0:	48 8b 12             	mov    (%rdx),%rdx
  305cc3:	43 f6 04 0b 20       	testb  $0x20,(%r11,%r9,1)
  305cc8:	4c 89 c8             	mov    %r9,%rax
  305ccb:	74 15                	je     305ce2 <vsscanf+0x402>
  305ccd:	0f 1f 00             	nopl   (%rax)
  305cd0:	48 83 c7 01          	add    $0x1,%rdi
  305cd4:	44 0f b6 0f          	movzbl (%rdi),%r9d
  305cd8:	43 f6 04 0b 20       	testb  $0x20,(%r11,%r9,1)
  305cdd:	4c 89 c8             	mov    %r9,%rax
  305ce0:	75 ee                	jne    305cd0 <vsscanf+0x3f0>
  305ce2:	84 c0                	test   %al,%al
  305ce4:	74 33                	je     305d19 <vsscanf+0x439>
  305ce6:	44 8d 4e ff          	lea    -0x1(%rsi),%r9d
  305cea:	85 f6                	test   %esi,%esi
  305cec:	4e 8d 4c 0a 01       	lea    0x1(%rdx,%r9,1),%r9
  305cf1:	75 14                	jne    305d07 <vsscanf+0x427>
  305cf3:	eb 24                	jmp    305d19 <vsscanf+0x439>
  305cf5:	0f 1f 00             	nopl   (%rax)
  305cf8:	0f b6 f0             	movzbl %al,%esi
  305cfb:	41 f6 04 33 20       	testb  $0x20,(%r11,%rsi,1)
  305d00:	75 17                	jne    305d19 <vsscanf+0x439>
  305d02:	4c 39 ca             	cmp    %r9,%rdx
  305d05:	74 12                	je     305d19 <vsscanf+0x439>
  305d07:	48 83 c2 01          	add    $0x1,%rdx
  305d0b:	48 83 c7 01          	add    $0x1,%rdi
  305d0f:	88 42 ff             	mov    %al,-0x1(%rdx)
  305d12:	0f b6 07             	movzbl (%rdi),%eax
  305d15:	84 c0                	test   %al,%al
  305d17:	75 df                	jne    305cf8 <vsscanf+0x418>
  305d19:	c6 02 00             	movb   $0x0,(%rdx)
  305d1c:	41 83 c6 01          	add    $0x1,%r14d
  305d20:	41 0f b6 54 24 01    	movzbl 0x1(%r12),%edx
  305d26:	e9 f3 fb ff ff       	jmpq   30591e <vsscanf+0x3e>
  305d2b:	45 31 d2             	xor    %r10d,%r10d
  305d2e:	c7 45 c0 00 00 00 00 	movl   $0x0,-0x40(%rbp)
  305d35:	ba 0a 00 00 00       	mov    $0xa,%edx
  305d3a:	e9 e3 fe ff ff       	jmpq   305c22 <vsscanf+0x342>
  305d3f:	41 8b 07             	mov    (%r15),%eax
  305d42:	83 f8 2f             	cmp    $0x2f,%eax
  305d45:	0f 87 40 02 00 00    	ja     305f8b <vsscanf+0x6ab>
  305d4b:	89 c2                	mov    %eax,%edx
  305d4d:	49 03 57 10          	add    0x10(%r15),%rdx
  305d51:	83 c0 08             	add    $0x8,%eax
  305d54:	41 89 07             	mov    %eax,(%r15)
  305d57:	83 fe ff             	cmp    $0xffffffff,%esi
  305d5a:	48 8b 02             	mov    (%rdx),%rax
  305d5d:	0f b6 17             	movzbl (%rdi),%edx
  305d60:	0f 84 44 03 00 00    	je     3060aa <vsscanf+0x7ca>
  305d66:	66 2e 0f 1f 84 00 00 	nopw   %cs:0x0(%rax,%rax,1)
  305d6d:	00 00 00 
  305d70:	83 ee 01             	sub    $0x1,%esi
  305d73:	48 83 c0 01          	add    $0x1,%rax
  305d77:	48 83 c7 01          	add    $0x1,%rdi
  305d7b:	85 f6                	test   %esi,%esi
  305d7d:	88 50 ff             	mov    %dl,-0x1(%rax)
  305d80:	7e 9a                	jle    305d1c <vsscanf+0x43c>
  305d82:	0f b6 17             	movzbl (%rdi),%edx
  305d85:	84 d2                	test   %dl,%dl
  305d87:	75 e7                	jne    305d70 <vsscanf+0x490>
  305d89:	eb 91                	jmp    305d1c <vsscanf+0x43c>
  305d8b:	3c 25                	cmp    $0x25,%al
  305d8d:	0f 85 c8 fb ff ff    	jne    30595b <vsscanf+0x7b>
  305d93:	48 83 c7 01          	add    $0x1,%rdi
  305d97:	41 0f b6 54 24 01    	movzbl 0x1(%r12),%edx
  305d9d:	e9 7c fb ff ff       	jmpq   30591e <vsscanf+0x3e>
  305da2:	8b 75 c0             	mov    -0x40(%rbp),%esi
  305da5:	41 8b 07             	mov    (%r15),%eax
  305da8:	85 f6                	test   %esi,%esi
  305daa:	0f 84 0e 02 00 00    	je     305fbe <vsscanf+0x6de>
  305db0:	83 f8 2f             	cmp    $0x2f,%eax
  305db3:	0f 87 0d 03 00 00    	ja     3060c6 <vsscanf+0x7e6>
  305db9:	89 c6                	mov    %eax,%esi
  305dbb:	49 03 77 10          	add    0x10(%r15),%rsi
  305dbf:	83 c0 08             	add    $0x8,%eax
  305dc2:	41 89 07             	mov    %eax,(%r15)
  305dc5:	4c 8b 0e             	mov    (%rsi),%r9
  305dc8:	48 89 4d a8          	mov    %rcx,-0x58(%rbp)
  305dcc:	48 8d 75 d0          	lea    -0x30(%rbp),%rsi
  305dd0:	4c 89 45 b0          	mov    %r8,-0x50(%rbp)
  305dd4:	48 b8 50 57 30 00 00 	movabs $0x305750,%rax
  305ddb:	00 00 00 
  305dde:	4c 89 4d c0          	mov    %r9,-0x40(%rbp)
  305de2:	ff d0                	callq  *%rax
  305de4:	4c 8b 4d c0          	mov    -0x40(%rbp),%r9
  305de8:	41 88 01             	mov    %al,(%r9)
  305deb:	4c 8b 45 b0          	mov    -0x50(%rbp),%r8
  305def:	48 8b 4d a8          	mov    -0x58(%rbp),%rcx
  305df3:	e9 93 00 00 00       	jmpq   305e8b <vsscanf+0x5ab>
  305df8:	44 8b 55 c0          	mov    -0x40(%rbp),%r10d
  305dfc:	41 8b 07             	mov    (%r15),%eax
  305dff:	45 85 d2             	test   %r10d,%r10d
  305e02:	0f 84 45 02 00 00    	je     30604d <vsscanf+0x76d>
  305e08:	83 f8 2f             	cmp    $0x2f,%eax
  305e0b:	0f 87 a4 02 00 00    	ja     3060b5 <vsscanf+0x7d5>
  305e11:	89 c6                	mov    %eax,%esi
  305e13:	49 03 77 10          	add    0x10(%r15),%rsi
  305e17:	83 c0 08             	add    $0x8,%eax
  305e1a:	41 89 07             	mov    %eax,(%r15)
  305e1d:	4c 8b 0e             	mov    (%rsi),%r9
  305e20:	48 89 4d a8          	mov    %rcx,-0x58(%rbp)
  305e24:	48 8d 75 d0          	lea    -0x30(%rbp),%rsi
  305e28:	4c 89 45 b0          	mov    %r8,-0x50(%rbp)
  305e2c:	48 b8 50 57 30 00 00 	movabs $0x305750,%rax
  305e33:	00 00 00 
  305e36:	4c 89 4d c0          	mov    %r9,-0x40(%rbp)
  305e3a:	ff d0                	callq  *%rax
  305e3c:	4c 8b 4d c0          	mov    -0x40(%rbp),%r9
  305e40:	66 41 89 01          	mov    %ax,(%r9)
  305e44:	4c 8b 45 b0          	mov    -0x50(%rbp),%r8
  305e48:	48 8b 4d a8          	mov    -0x58(%rbp),%rcx
  305e4c:	eb 3d                	jmp    305e8b <vsscanf+0x5ab>
  305e4e:	41 8b 07             	mov    (%r15),%eax
  305e51:	83 f8 2f             	cmp    $0x2f,%eax
  305e54:	0f 87 20 01 00 00    	ja     305f7a <vsscanf+0x69a>
  305e5a:	89 c6                	mov    %eax,%esi
  305e5c:	49 03 77 10          	add    0x10(%r15),%rsi
  305e60:	83 c0 08             	add    $0x8,%eax
  305e63:	41 89 07             	mov    %eax,(%r15)
  305e66:	48 89 4d a8          	mov    %rcx,-0x58(%rbp)
  305e6a:	4c 89 45 b0          	mov    %r8,-0x50(%rbp)
  305e6e:	4c 8b 0e             	mov    (%rsi),%r9
  305e71:	48 8d 75 d0          	lea    -0x30(%rbp),%rsi
  305e75:	4c 89 4d c0          	mov    %r9,-0x40(%rbp)
  305e79:	41 ff d5             	callq  *%r13
  305e7c:	4c 8b 4d c0          	mov    -0x40(%rbp),%r9
  305e80:	49 89 01             	mov    %rax,(%r9)
  305e83:	4c 8b 45 b0          	mov    -0x50(%rbp),%r8
  305e87:	48 8b 4d a8          	mov    -0x58(%rbp),%rcx
  305e8b:	48 8b 7d d0          	mov    -0x30(%rbp),%rdi
  305e8f:	41 83 c6 01          	add    $0x1,%r14d
  305e93:	41 0f b6 54 24 01    	movzbl 0x1(%r12),%edx
  305e99:	48 85 ff             	test   %rdi,%rdi
  305e9c:	0f 85 7c fa ff ff    	jne    30591e <vsscanf+0x3e>
  305ea2:	49 89 dc             	mov    %rbx,%r12
  305ea5:	48 8b 7d b8          	mov    -0x48(%rbp),%rdi
  305ea9:	e9 a4 fa ff ff       	jmpq   305952 <vsscanf+0x72>
  305eae:	8b 75 c0             	mov    -0x40(%rbp),%esi
  305eb1:	41 8b 07             	mov    (%r15),%eax
  305eb4:	85 f6                	test   %esi,%esi
  305eb6:	0f 84 41 01 00 00    	je     305ffd <vsscanf+0x71d>
  305ebc:	83 f8 2f             	cmp    $0x2f,%eax
  305ebf:	0f 87 45 02 00 00    	ja     30610a <vsscanf+0x82a>
  305ec5:	89 c6                	mov    %eax,%esi
  305ec7:	49 03 77 10          	add    0x10(%r15),%rsi
  305ecb:	83 c0 08             	add    $0x8,%eax
  305ece:	41 89 07             	mov    %eax,(%r15)
  305ed1:	4c 8b 0e             	mov    (%rsi),%r9
  305ed4:	48 89 4d a8          	mov    %rcx,-0x58(%rbp)
  305ed8:	48 8d 75 d0          	lea    -0x30(%rbp),%rsi
  305edc:	4c 89 45 b0          	mov    %r8,-0x50(%rbp)
  305ee0:	48 b8 50 57 30 00 00 	movabs $0x305750,%rax
  305ee7:	00 00 00 
  305eea:	4c 89 4d c0          	mov    %r9,-0x40(%rbp)
  305eee:	ff d0                	callq  *%rax
  305ef0:	4c 8b 4d c0          	mov    -0x40(%rbp),%r9
  305ef4:	4c 8b 45 b0          	mov    -0x50(%rbp),%r8
  305ef8:	48 8b 4d a8          	mov    -0x58(%rbp),%rcx
  305efc:	41 89 01             	mov    %eax,(%r9)
  305eff:	eb 8a                	jmp    305e8b <vsscanf+0x5ab>
  305f01:	85 d2                	test   %edx,%edx
  305f03:	0f 85 8c fc ff ff    	jne    305b95 <vsscanf+0x2b5>
  305f09:	41 f6 04 03 04       	testb  $0x4,(%r11,%rax,1)
  305f0e:	0f 85 81 fc ff ff    	jne    305b95 <vsscanf+0x2b5>
  305f14:	41 0f b6 54 24 01    	movzbl 0x1(%r12),%edx
  305f1a:	49 89 dc             	mov    %rbx,%r12
  305f1d:	e9 30 fa ff ff       	jmpq   305952 <vsscanf+0x72>
  305f22:	66 0f 1f 44 00 00    	nopw   0x0(%rax,%rax,1)
  305f28:	48 89 7d b8          	mov    %rdi,-0x48(%rbp)
  305f2c:	e9 2b fc ff ff       	jmpq   305b5c <vsscanf+0x27c>
  305f31:	41 f6 04 03 44       	testb  $0x44,(%r11,%rax,1)
  305f36:	0f 85 59 fc ff ff    	jne    305b95 <vsscanf+0x2b5>
  305f3c:	eb d6                	jmp    305f14 <vsscanf+0x634>
  305f3e:	66 90                	xchg   %ax,%ax
  305f40:	49 8b 57 08          	mov    0x8(%r15),%rdx
  305f44:	48 8d 42 08          	lea    0x8(%rdx),%rax
  305f48:	49 89 47 08          	mov    %rax,0x8(%r15)
  305f4c:	e9 43 fb ff ff       	jmpq   305a94 <vsscanf+0x1b4>
  305f51:	41 83 f9 68          	cmp    $0x68,%r9d
  305f55:	0f 84 32 01 00 00    	je     30608d <vsscanf+0x7ad>
  305f5b:	41 83 f9 6c          	cmp    $0x6c,%r9d
  305f5f:	0f 85 fd fa ff ff    	jne    305a62 <vsscanf+0x182>
  305f65:	41 0f b6 54 24 02    	movzbl 0x2(%r12),%edx
  305f6b:	41 b9 4c 00 00 00    	mov    $0x4c,%r9d
  305f71:	49 83 c4 02          	add    $0x2,%r12
  305f75:	e9 90 fa ff ff       	jmpq   305a0a <vsscanf+0x12a>
  305f7a:	49 8b 77 08          	mov    0x8(%r15),%rsi
  305f7e:	48 8d 46 08          	lea    0x8(%rsi),%rax
  305f82:	49 89 47 08          	mov    %rax,0x8(%r15)
  305f86:	e9 db fe ff ff       	jmpq   305e66 <vsscanf+0x586>
  305f8b:	49 8b 57 08          	mov    0x8(%r15),%rdx
  305f8f:	48 8d 42 08          	lea    0x8(%rdx),%rax
  305f93:	49 89 47 08          	mov    %rax,0x8(%r15)
  305f97:	e9 bb fd ff ff       	jmpq   305d57 <vsscanf+0x477>
  305f9c:	49 8b 57 08          	mov    0x8(%r15),%rdx
  305fa0:	48 8d 42 08          	lea    0x8(%rdx),%rax
  305fa4:	49 89 47 08          	mov    %rax,0x8(%r15)
  305fa8:	e9 cc fc ff ff       	jmpq   305c79 <vsscanf+0x399>
  305fad:	49 8b 57 08          	mov    0x8(%r15),%rdx
  305fb1:	48 8d 42 08          	lea    0x8(%rdx),%rax
  305fb5:	49 89 47 08          	mov    %rax,0x8(%r15)
  305fb9:	e9 f3 fc ff ff       	jmpq   305cb1 <vsscanf+0x3d1>
  305fbe:	83 f8 2f             	cmp    $0x2f,%eax
  305fc1:	0f 87 32 01 00 00    	ja     3060f9 <vsscanf+0x819>
  305fc7:	89 c6                	mov    %eax,%esi
  305fc9:	49 03 77 10          	add    0x10(%r15),%rsi
  305fcd:	83 c0 08             	add    $0x8,%eax
  305fd0:	41 89 07             	mov    %eax,(%r15)
  305fd3:	4c 8b 0e             	mov    (%rsi),%r9
  305fd6:	48 89 4d a8          	mov    %rcx,-0x58(%rbp)
  305fda:	48 8d 75 d0          	lea    -0x30(%rbp),%rsi
  305fde:	4c 89 45 b0          	mov    %r8,-0x50(%rbp)
  305fe2:	4c 89 4d c0          	mov    %r9,-0x40(%rbp)
  305fe6:	41 ff d5             	callq  *%r13
  305fe9:	4c 8b 4d c0          	mov    -0x40(%rbp),%r9
  305fed:	41 88 01             	mov    %al,(%r9)
  305ff0:	4c 8b 45 b0          	mov    -0x50(%rbp),%r8
  305ff4:	48 8b 4d a8          	mov    -0x58(%rbp),%rcx
  305ff8:	e9 8e fe ff ff       	jmpq   305e8b <vsscanf+0x5ab>
  305ffd:	83 f8 2f             	cmp    $0x2f,%eax
  306000:	0f 87 e2 00 00 00    	ja     3060e8 <vsscanf+0x808>
  306006:	89 c6                	mov    %eax,%esi
  306008:	49 03 77 10          	add    0x10(%r15),%rsi
  30600c:	83 c0 08             	add    $0x8,%eax
  30600f:	41 89 07             	mov    %eax,(%r15)
  306012:	4c 8b 0e             	mov    (%rsi),%r9
  306015:	48 89 4d a8          	mov    %rcx,-0x58(%rbp)
  306019:	48 8d 75 d0          	lea    -0x30(%rbp),%rsi
  30601d:	4c 89 45 b0          	mov    %r8,-0x50(%rbp)
  306021:	4c 89 4d c0          	mov    %r9,-0x40(%rbp)
  306025:	41 ff d5             	callq  *%r13
  306028:	4c 8b 4d c0          	mov    -0x40(%rbp),%r9
  30602c:	48 8b 4d a8          	mov    -0x58(%rbp),%rcx
  306030:	4c 8b 45 b0          	mov    -0x50(%rbp),%r8
  306034:	41 89 01             	mov    %eax,(%r9)
  306037:	e9 4f fe ff ff       	jmpq   305e8b <vsscanf+0x5ab>
  30603c:	49 8b 77 08          	mov    0x8(%r15),%rsi
  306040:	48 8d 46 08          	lea    0x8(%rsi),%rax
  306044:	49 89 47 08          	mov    %rax,0x8(%r15)
  306048:	e9 90 fb ff ff       	jmpq   305bdd <vsscanf+0x2fd>
  30604d:	83 f8 2f             	cmp    $0x2f,%eax
  306050:	0f 87 81 00 00 00    	ja     3060d7 <vsscanf+0x7f7>
  306056:	89 c6                	mov    %eax,%esi
  306058:	49 03 77 10          	add    0x10(%r15),%rsi
  30605c:	83 c0 08             	add    $0x8,%eax
  30605f:	41 89 07             	mov    %eax,(%r15)
  306062:	4c 8b 0e             	mov    (%rsi),%r9
  306065:	48 89 4d a8          	mov    %rcx,-0x58(%rbp)
  306069:	48 8d 75 d0          	lea    -0x30(%rbp),%rsi
  30606d:	4c 89 45 b0          	mov    %r8,-0x50(%rbp)
  306071:	4c 89 4d c0          	mov    %r9,-0x40(%rbp)
  306075:	41 ff d5             	callq  *%r13
  306078:	4c 8b 4d c0          	mov    -0x40(%rbp),%r9
  30607c:	66 41 89 01          	mov    %ax,(%r9)
  306080:	4c 8b 45 b0          	mov    -0x50(%rbp),%r8
  306084:	48 8b 4d a8          	mov    -0x58(%rbp),%rcx
  306088:	e9 fe fd ff ff       	jmpq   305e8b <vsscanf+0x5ab>
  30608d:	41 0f b6 54 24 02    	movzbl 0x2(%r12),%edx
  306093:	41 b9 48 00 00 00    	mov    $0x48,%r9d
  306099:	49 83 c4 02          	add    $0x2,%r12
  30609d:	e9 68 f9 ff ff       	jmpq   305a0a <vsscanf+0x12a>
  3060a2:	49 89 dc             	mov    %rbx,%r12
  3060a5:	e9 a8 f8 ff ff       	jmpq   305952 <vsscanf+0x72>
  3060aa:	88 10                	mov    %dl,(%rax)
  3060ac:	48 83 c7 01          	add    $0x1,%rdi
  3060b0:	e9 67 fc ff ff       	jmpq   305d1c <vsscanf+0x43c>
  3060b5:	49 8b 77 08          	mov    0x8(%r15),%rsi
  3060b9:	48 8d 46 08          	lea    0x8(%rsi),%rax
  3060bd:	49 89 47 08          	mov    %rax,0x8(%r15)
  3060c1:	e9 57 fd ff ff       	jmpq   305e1d <vsscanf+0x53d>
  3060c6:	49 8b 77 08          	mov    0x8(%r15),%rsi
  3060ca:	48 8d 46 08          	lea    0x8(%rsi),%rax
  3060ce:	49 89 47 08          	mov    %rax,0x8(%r15)
  3060d2:	e9 ee fc ff ff       	jmpq   305dc5 <vsscanf+0x4e5>
  3060d7:	49 8b 77 08          	mov    0x8(%r15),%rsi
  3060db:	48 8d 46 08          	lea    0x8(%rsi),%rax
  3060df:	49 89 47 08          	mov    %rax,0x8(%r15)
  3060e3:	e9 7a ff ff ff       	jmpq   306062 <vsscanf+0x782>
  3060e8:	49 8b 77 08          	mov    0x8(%r15),%rsi
  3060ec:	48 8d 46 08          	lea    0x8(%rsi),%rax
  3060f0:	49 89 47 08          	mov    %rax,0x8(%r15)
  3060f4:	e9 19 ff ff ff       	jmpq   306012 <vsscanf+0x732>
  3060f9:	49 8b 77 08          	mov    0x8(%r15),%rsi
  3060fd:	48 8d 46 08          	lea    0x8(%rsi),%rax
  306101:	49 89 47 08          	mov    %rax,0x8(%r15)
  306105:	e9 c9 fe ff ff       	jmpq   305fd3 <vsscanf+0x6f3>
  30610a:	49 8b 77 08          	mov    0x8(%r15),%rsi
  30610e:	48 8d 46 08          	lea    0x8(%rsi),%rax
  306112:	49 89 47 08          	mov    %rax,0x8(%r15)
  306116:	e9 b6 fd ff ff       	jmpq   305ed1 <vsscanf+0x5f1>
  30611b:	48 89 7d b8          	mov    %rdi,-0x48(%rbp)
  30611f:	e9 40 fa ff ff       	jmpq   305b64 <vsscanf+0x284>
  306124:	66 90                	xchg   %ax,%ax
  306126:	66 2e 0f 1f 84 00 00 	nopw   %cs:0x0(%rax,%rax,1)
  30612d:	00 00 00 

0000000000306130 <sscanf>:
  306130:	55                   	push   %rbp
  306131:	48 89 e5             	mov    %rsp,%rbp
  306134:	48 81 ec d0 00 00 00 	sub    $0xd0,%rsp
  30613b:	84 c0                	test   %al,%al
  30613d:	48 89 95 60 ff ff ff 	mov    %rdx,-0xa0(%rbp)
  306144:	48 89 8d 68 ff ff ff 	mov    %rcx,-0x98(%rbp)
  30614b:	4c 89 85 70 ff ff ff 	mov    %r8,-0x90(%rbp)
  306152:	4c 89 8d 78 ff ff ff 	mov    %r9,-0x88(%rbp)
  306159:	74 20                	je     30617b <sscanf+0x4b>
  30615b:	0f 29 45 80          	movaps %xmm0,-0x80(%rbp)
  30615f:	0f 29 4d 90          	movaps %xmm1,-0x70(%rbp)
  306163:	0f 29 55 a0          	movaps %xmm2,-0x60(%rbp)
  306167:	0f 29 5d b0          	movaps %xmm3,-0x50(%rbp)
  30616b:	0f 29 65 c0          	movaps %xmm4,-0x40(%rbp)
  30616f:	0f 29 6d d0          	movaps %xmm5,-0x30(%rbp)
  306173:	0f 29 75 e0          	movaps %xmm6,-0x20(%rbp)
  306177:	0f 29 7d f0          	movaps %xmm7,-0x10(%rbp)
  30617b:	48 8d 45 10          	lea    0x10(%rbp),%rax
  30617f:	48 8d 95 38 ff ff ff 	lea    -0xc8(%rbp),%rdx
  306186:	48 89 85 40 ff ff ff 	mov    %rax,-0xc0(%rbp)
  30618d:	48 8d 85 50 ff ff ff 	lea    -0xb0(%rbp),%rax
  306194:	c7 85 38 ff ff ff 10 	movl   $0x10,-0xc8(%rbp)
  30619b:	00 00 00 
  30619e:	c7 85 3c ff ff ff 30 	movl   $0x30,-0xc4(%rbp)
  3061a5:	00 00 00 
  3061a8:	48 89 85 48 ff ff ff 	mov    %rax,-0xb8(%rbp)
  3061af:	48 b8 e0 58 30 00 00 	movabs $0x3058e0,%rax
  3061b6:	00 00 00 
  3061b9:	ff d0                	callq  *%rax
  3061bb:	c9                   	leaveq 
  3061bc:	c3                   	retq   
  3061bd:	0f 1f 00             	nopl   (%rax)

00000000003061c0 <warn_slowpath>:
  3061c0:	55                   	push   %rbp
  3061c1:	48 89 e5             	mov    %rsp,%rbp
  3061c4:	53                   	push   %rbx
  3061c5:	48 89 d3             	mov    %rdx,%rbx
  3061c8:	48 81 ec d8 00 00 00 	sub    $0xd8,%rsp
  3061cf:	84 c0                	test   %al,%al
  3061d1:	48 89 8d 58 ff ff ff 	mov    %rcx,-0xa8(%rbp)
  3061d8:	4c 89 85 60 ff ff ff 	mov    %r8,-0xa0(%rbp)
  3061df:	4c 89 8d 68 ff ff ff 	mov    %r9,-0x98(%rbp)
  3061e6:	74 23                	je     30620b <warn_slowpath+0x4b>
  3061e8:	0f 29 85 70 ff ff ff 	movaps %xmm0,-0x90(%rbp)
  3061ef:	0f 29 4d 80          	movaps %xmm1,-0x80(%rbp)
  3061f3:	0f 29 55 90          	movaps %xmm2,-0x70(%rbp)
  3061f7:	0f 29 5d a0          	movaps %xmm3,-0x60(%rbp)
  3061fb:	0f 29 65 b0          	movaps %xmm4,-0x50(%rbp)
  3061ff:	0f 29 6d c0          	movaps %xmm5,-0x40(%rbp)
  306203:	0f 29 75 d0          	movaps %xmm6,-0x30(%rbp)
  306207:	0f 29 7d e0          	movaps %xmm7,-0x20(%rbp)
  30620b:	89 f2                	mov    %esi,%edx
  30620d:	48 b9 90 55 30 00 00 	movabs $0x305590,%rcx
  306214:	00 00 00 
  306217:	48 89 fe             	mov    %rdi,%rsi
  30621a:	31 c0                	xor    %eax,%eax
  30621c:	48 bf e1 f4 34 00 00 	movabs $0x34f4e1,%rdi
  306223:	00 00 00 
  306226:	ff d1                	callq  *%rcx
  306228:	48 8d 45 10          	lea    0x10(%rbp),%rax
  30622c:	c7 85 28 ff ff ff 18 	movl   $0x18,-0xd8(%rbp)
  306233:	00 00 00 
  306236:	c7 85 2c ff ff ff 30 	movl   $0x30,-0xd4(%rbp)
  30623d:	00 00 00 
  306240:	48 8d b5 28 ff ff ff 	lea    -0xd8(%rbp),%rsi
  306247:	48 89 df             	mov    %rbx,%rdi
  30624a:	48 89 85 30 ff ff ff 	mov    %rax,-0xd0(%rbp)
  306251:	48 8d 85 40 ff ff ff 	lea    -0xc0(%rbp),%rax
  306258:	48 89 85 38 ff ff ff 	mov    %rax,-0xc8(%rbp)
  30625f:	48 b8 50 54 30 00 00 	movabs $0x305450,%rax
  306266:	00 00 00 
  306269:	ff d0                	callq  *%rax
  30626b:	48 81 c4 d8 00 00 00 	add    $0xd8,%rsp
  306272:	5b                   	pop    %rbx
  306273:	5d                   	pop    %rbp
  306274:	c3                   	retq   
  306275:	90                   	nop
  306276:	66 2e 0f 1f 84 00 00 	nopw   %cs:0x0(%rax,%rax,1)
  30627d:	00 00 00 

0000000000306280 <vsnprintf>:
  306280:	55                   	push   %rbp
  306281:	48 89 e5             	mov    %rsp,%rbp
  306284:	41 57                	push   %r15
  306286:	41 56                	push   %r14
  306288:	41 55                	push   %r13
  30628a:	41 54                	push   %r12
  30628c:	53                   	push   %rbx
  30628d:	48 83 ec 78          	sub    $0x78,%rsp
  306291:	85 f6                	test   %esi,%esi
  306293:	48 89 75 80          	mov    %rsi,-0x80(%rbp)
  306297:	0f 88 98 0b 00 00    	js     306e35 <vsnprintf+0xbb5>
  30629d:	4c 8b 7d 80          	mov    -0x80(%rbp),%r15
  3062a1:	49 89 fc             	mov    %rdi,%r12
  3062a4:	48 89 d3             	mov    %rdx,%rbx
  3062a7:	49 89 ca             	mov    %rcx,%r10
  3062aa:	48 89 bd 78 ff ff ff 	mov    %rdi,-0x88(%rbp)
  3062b1:	49 01 ff             	add    %rdi,%r15
  3062b4:	0f 82 3c 07 00 00    	jb     3069f6 <vsnprintf+0x776>
  3062ba:	0f b6 13             	movzbl (%rbx),%edx
  3062bd:	c7 45 8c 00 00 00 00 	movl   $0x0,-0x74(%rbp)
  3062c4:	45 31 ed             	xor    %r13d,%r13d
  3062c7:	45 31 db             	xor    %r11d,%r11d
  3062ca:	45 31 f6             	xor    %r14d,%r14d
  3062cd:	0f 1f 00             	nopl   (%rax)
  3062d0:	84 d2                	test   %dl,%dl
  3062d2:	0f 84 b0 00 00 00    	je     306388 <vsnprintf+0x108>
  3062d8:	41 83 fe 01          	cmp    $0x1,%r14d
  3062dc:	0f 84 de 00 00 00    	je     3063c0 <vsnprintf+0x140>
  3062e2:	41 83 fe 02          	cmp    $0x2,%r14d
  3062e6:	0f 84 a4 05 00 00    	je     306890 <vsnprintf+0x610>
  3062ec:	80 fa 25             	cmp    $0x25,%dl
  3062ef:	48 89 d8             	mov    %rbx,%rax
  3062f2:	75 15                	jne    306309 <vsnprintf+0x89>
  3062f4:	e9 b0 04 00 00       	jmpq   3067a9 <vsnprintf+0x529>
  3062f9:	0f 1f 80 00 00 00 00 	nopl   0x0(%rax)
  306300:	80 fa 25             	cmp    $0x25,%dl
  306303:	0f 84 97 04 00 00    	je     3067a0 <vsnprintf+0x520>
  306309:	48 83 c0 01          	add    $0x1,%rax
  30630d:	0f b6 10             	movzbl (%rax),%edx
  306310:	84 d2                	test   %dl,%dl
  306312:	75 ec                	jne    306300 <vsnprintf+0x80>
  306314:	48 29 d8             	sub    %rbx,%rax
  306317:	4d 39 fc             	cmp    %r15,%r12
  30631a:	4c 63 f0             	movslq %eax,%r14
  30631d:	89 c2                	mov    %eax,%edx
  30631f:	4a 8d 0c 33          	lea    (%rbx,%r14,1),%rcx
  306323:	73 4b                	jae    306370 <vsnprintf+0xf0>
  306325:	4c 89 f8             	mov    %r15,%rax
  306328:	4c 89 95 60 ff ff ff 	mov    %r10,-0xa0(%rbp)
  30632f:	44 89 9d 68 ff ff ff 	mov    %r11d,-0x98(%rbp)
  306336:	4c 29 e0             	sub    %r12,%rax
  306339:	48 89 8d 70 ff ff ff 	mov    %rcx,-0x90(%rbp)
  306340:	48 89 de             	mov    %rbx,%rsi
  306343:	49 39 c6             	cmp    %rax,%r14
  306346:	4c 89 e7             	mov    %r12,%rdi
  306349:	0f 4f d0             	cmovg  %eax,%edx
  30634c:	48 b8 00 ca 30 00 00 	movabs $0x30ca00,%rax
  306353:	00 00 00 
  306356:	48 63 d2             	movslq %edx,%rdx
  306359:	ff d0                	callq  *%rax
  30635b:	4c 8b 95 60 ff ff ff 	mov    -0xa0(%rbp),%r10
  306362:	44 8b 9d 68 ff ff ff 	mov    -0x98(%rbp),%r11d
  306369:	48 8b 8d 70 ff ff ff 	mov    -0x90(%rbp),%rcx
  306370:	0f b6 11             	movzbl (%rcx),%edx
  306373:	4d 01 f4             	add    %r14,%r12
  306376:	45 31 f6             	xor    %r14d,%r14d
  306379:	48 89 cb             	mov    %rcx,%rbx
  30637c:	84 d2                	test   %dl,%dl
  30637e:	0f 85 54 ff ff ff    	jne    3062d8 <vsnprintf+0x58>
  306384:	0f 1f 40 00          	nopl   0x0(%rax)
  306388:	48 83 7d 80 00       	cmpq   $0x0,-0x80(%rbp)
  30638d:	74 0e                	je     30639d <vsnprintf+0x11d>
  30638f:	4d 39 fc             	cmp    %r15,%r12
  306392:	0f 83 c3 07 00 00    	jae    306b5b <vsnprintf+0x8db>
  306398:	41 c6 04 24 00       	movb   $0x0,(%r12)
  30639d:	44 2b a5 78 ff ff ff 	sub    -0x88(%rbp),%r12d
  3063a4:	48 8d 65 d8          	lea    -0x28(%rbp),%rsp
  3063a8:	44 89 e0             	mov    %r12d,%eax
  3063ab:	5b                   	pop    %rbx
  3063ac:	41 5c                	pop    %r12
  3063ae:	41 5d                	pop    %r13
  3063b0:	41 5e                	pop    %r14
  3063b2:	41 5f                	pop    %r15
  3063b4:	5d                   	pop    %rbp
  3063b5:	c3                   	retq   
  3063b6:	66 2e 0f 1f 84 00 00 	nopw   %cs:0x0(%rax,%rax,1)
  3063bd:	00 00 00 
  3063c0:	45 85 ed             	test   %r13d,%r13d
  3063c3:	0f 88 47 05 00 00    	js     306910 <vsnprintf+0x690>
  3063c9:	48 89 de             	mov    %rbx,%rsi
  3063cc:	80 fa 2e             	cmp    $0x2e,%dl
  3063cf:	c7 45 8c ff ff ff ff 	movl   $0xffffffff,-0x74(%rbp)
  3063d6:	0f 84 d4 04 00 00    	je     3068b0 <vsnprintf+0x630>
  3063dc:	8d 4a b4             	lea    -0x4c(%rdx),%ecx
  3063df:	b8 ff ff ff ff       	mov    $0xffffffff,%eax
  3063e4:	80 f9 2e             	cmp    $0x2e,%cl
  3063e7:	77 28                	ja     306411 <vsnprintf+0x191>
  3063e9:	48 bf 01 40 00 10 01 	movabs $0x410110004001,%rdi
  3063f0:	41 00 00 
  3063f3:	48 0f a3 cf          	bt     %rcx,%rdi
  3063f7:	73 18                	jae    306411 <vsnprintf+0x191>
  3063f9:	0f be 4e 01          	movsbl 0x1(%rsi),%ecx
  3063fd:	0f be c2             	movsbl %dl,%eax
  306400:	48 8d 7e 01          	lea    0x1(%rsi),%rdi
  306404:	39 c8                	cmp    %ecx,%eax
  306406:	89 ca                	mov    %ecx,%edx
  306408:	0f 84 f7 06 00 00    	je     306b05 <vsnprintf+0x885>
  30640e:	48 89 fe             	mov    %rdi,%rsi
  306411:	83 ea 25             	sub    $0x25,%edx
  306414:	80 fa 53             	cmp    $0x53,%dl
  306417:	0f 87 53 03 00 00    	ja     306770 <vsnprintf+0x4f0>
  30641d:	0f b6 d2             	movzbl %dl,%edx
  306420:	48 bf 58 aa 34 00 00 	movabs $0x34aa58,%rdi
  306427:	00 00 00 
  30642a:	ff 24 d7             	jmpq   *(%rdi,%rdx,8)
  30642d:	48 8d 46 01          	lea    0x1(%rsi),%rax
  306431:	48 29 d8             	sub    %rbx,%rax
  306434:	48 98                	cltq   
  306436:	48 01 c3             	add    %rax,%rbx
  306439:	41 8b 02             	mov    (%r10),%eax
  30643c:	83 f8 2f             	cmp    $0x2f,%eax
  30643f:	0f 87 a0 05 00 00    	ja     3069e5 <vsnprintf+0x765>
  306445:	89 c2                	mov    %eax,%edx
  306447:	49 03 52 10          	add    0x10(%r10),%rdx
  30644b:	83 c0 08             	add    $0x8,%eax
  30644e:	41 89 02             	mov    %eax,(%r10)
  306451:	4c 89 95 68 ff ff ff 	mov    %r10,-0x98(%rbp)
  306458:	44 89 d9             	mov    %r11d,%ecx
  30645b:	44 89 9d 70 ff ff ff 	mov    %r11d,-0x90(%rbp)
  306462:	48 8b 12             	mov    (%rdx),%rdx
  306465:	4c 89 e7             	mov    %r12,%rdi
  306468:	44 8b 4d 8c          	mov    -0x74(%rbp),%r9d
  30646c:	45 89 e8             	mov    %r13d,%r8d
  30646f:	4c 89 fe             	mov    %r15,%rsi
  306472:	48 b8 50 53 30 00 00 	movabs $0x305350,%rax
  306479:	00 00 00 
  30647c:	41 be 04 00 00 00    	mov    $0x4,%r14d
  306482:	ff d0                	callq  *%rax
  306484:	0f b6 13             	movzbl (%rbx),%edx
  306487:	49 89 c4             	mov    %rax,%r12
  30648a:	44 8b 9d 70 ff ff ff 	mov    -0x90(%rbp),%r11d
  306491:	4c 8b 95 68 ff ff ff 	mov    -0x98(%rbp),%r10
  306498:	e9 33 fe ff ff       	jmpq   3062d0 <vsnprintf+0x50>
  30649d:	48 89 f0             	mov    %rsi,%rax
  3064a0:	48 29 d8             	sub    %rbx,%rax
  3064a3:	48 98                	cltq   
  3064a5:	48 01 c3             	add    %rax,%rbx
  3064a8:	41 8b 02             	mov    (%r10),%eax
  3064ab:	83 f8 2f             	cmp    $0x2f,%eax
  3064ae:	0f 87 20 05 00 00    	ja     3069d4 <vsnprintf+0x754>
  3064b4:	89 c2                	mov    %eax,%edx
  3064b6:	49 03 52 10          	add    0x10(%r10),%rdx
  3064ba:	83 c0 08             	add    $0x8,%eax
  3064bd:	41 89 02             	mov    %eax,(%r10)
  3064c0:	48 8b 12             	mov    (%rdx),%rdx
  3064c3:	48 85 d2             	test   %rdx,%rdx
  3064c6:	0f 84 d0 0b 00 00    	je     30709c <vsnprintf+0xe1c>
  3064cc:	0f b6 73 01          	movzbl 0x1(%rbx),%esi
  3064d0:	8d 4e b7             	lea    -0x49(%rsi),%ecx
  3064d3:	80 f9 2a             	cmp    $0x2a,%cl
  3064d6:	77 41                	ja     306519 <vsnprintf+0x299>
  3064d8:	b8 01 00 00 00       	mov    $0x1,%eax
  3064dd:	48 d3 e0             	shl    %cl,%rax
  3064e0:	48 b9 01 00 00 00 01 	movabs $0x100000001,%rcx
  3064e7:	00 00 00 
  3064ea:	48 85 c8             	test   %rcx,%rax
  3064ed:	0f 85 72 06 00 00    	jne    306b65 <vsnprintf+0x8e5>
  3064f3:	48 b9 10 00 00 00 10 	movabs $0x1000000010,%rcx
  3064fa:	00 00 00 
  3064fd:	48 85 c8             	test   %rcx,%rax
  306500:	0f 85 4e 0a 00 00    	jne    306f54 <vsnprintf+0xcd4>
  306506:	48 b9 00 04 00 00 00 	movabs $0x40000000400,%rcx
  30650d:	04 00 00 
  306510:	48 85 c8             	test   %rcx,%rax
  306513:	0f 85 eb 0a 00 00    	jne    307004 <vsnprintf+0xd84>
  306519:	41 83 fd ff          	cmp    $0xffffffff,%r13d
  30651d:	44 89 d9             	mov    %r11d,%ecx
  306520:	0f 84 b2 08 00 00    	je     306dd8 <vsnprintf+0xb58>
  306526:	83 c9 20             	or     $0x20,%ecx
  306529:	45 89 e8             	mov    %r13d,%r8d
  30652c:	8b 45 8c             	mov    -0x74(%rbp),%eax
  30652f:	48 83 ec 08          	sub    $0x8,%rsp
  306533:	4c 89 e7             	mov    %r12,%rdi
  306536:	4c 89 95 68 ff ff ff 	mov    %r10,-0x98(%rbp)
  30653d:	44 89 9d 70 ff ff ff 	mov    %r11d,-0x90(%rbp)
  306544:	4c 89 fe             	mov    %r15,%rsi
  306547:	41 b9 10 00 00 00    	mov    $0x10,%r9d
  30654d:	50                   	push   %rax
  30654e:	48 b8 60 4f 30 00 00 	movabs $0x304f60,%rax
  306555:	00 00 00 
  306558:	ff d0                	callq  *%rax
  30655a:	5e                   	pop    %rsi
  30655b:	5f                   	pop    %rdi
  30655c:	4c 8b 95 68 ff ff ff 	mov    -0x98(%rbp),%r10
  306563:	44 8b 9d 70 ff ff ff 	mov    -0x90(%rbp),%r11d
  30656a:	49 89 c4             	mov    %rax,%r12
  30656d:	0f b6 03             	movzbl (%rbx),%eax
  306570:	48 b9 20 82 34 00 00 	movabs $0x348220,%rcx
  306577:	00 00 00 
  30657a:	f6 04 01 07          	testb  $0x7,(%rcx,%rax,1)
  30657e:	48 89 c2             	mov    %rax,%rdx
  306581:	74 15                	je     306598 <vsnprintf+0x318>
  306583:	0f 1f 44 00 00       	nopl   0x0(%rax,%rax,1)
  306588:	48 83 c3 01          	add    $0x1,%rbx
  30658c:	0f b6 03             	movzbl (%rbx),%eax
  30658f:	f6 04 01 07          	testb  $0x7,(%rcx,%rax,1)
  306593:	48 89 c2             	mov    %rax,%rdx
  306596:	75 f0                	jne    306588 <vsnprintf+0x308>
  306598:	41 be 05 00 00 00    	mov    $0x5,%r14d
  30659e:	e9 2d fd ff ff       	jmpq   3062d0 <vsnprintf+0x50>
  3065a3:	48 83 c6 01          	add    $0x1,%rsi
  3065a7:	48 29 de             	sub    %rbx,%rsi
  3065aa:	48 63 d6             	movslq %esi,%rdx
  3065ad:	48 01 d3             	add    %rdx,%rbx
  3065b0:	83 f8 6c             	cmp    $0x6c,%eax
  3065b3:	0f 84 b6 04 00 00    	je     306a6f <vsnprintf+0x7ef>
  3065b9:	83 e0 df             	and    $0xffffffdf,%eax
  3065bc:	83 f8 5a             	cmp    $0x5a,%eax
  3065bf:	41 8b 02             	mov    (%r10),%eax
  3065c2:	0f 85 75 04 00 00    	jne    306a3d <vsnprintf+0x7bd>
  3065c8:	83 f8 2f             	cmp    $0x2f,%eax
  3065cb:	0f 87 aa 04 00 00    	ja     306a7b <vsnprintf+0x7fb>
  3065d1:	89 c2                	mov    %eax,%edx
  3065d3:	49 03 52 10          	add    0x10(%r10),%rdx
  3065d7:	83 c0 08             	add    $0x8,%eax
  3065da:	41 89 02             	mov    %eax,(%r10)
  3065dd:	48 8b 02             	mov    (%rdx),%rax
  3065e0:	4c 89 e2             	mov    %r12,%rdx
  3065e3:	48 2b 95 78 ff ff ff 	sub    -0x88(%rbp),%rdx
  3065ea:	41 be 11 00 00 00    	mov    $0x11,%r14d
  3065f0:	48 89 10             	mov    %rdx,(%rax)
  3065f3:	0f b6 13             	movzbl (%rbx),%edx
  3065f6:	e9 d5 fc ff ff       	jmpq   3062d0 <vsnprintf+0x50>
  3065fb:	48 8d 46 01          	lea    0x1(%rsi),%rax
  3065ff:	48 29 d8             	sub    %rbx,%rax
  306602:	48 98                	cltq   
  306604:	48 01 c3             	add    %rax,%rbx
  306607:	41 f6 c3 10          	test   $0x10,%r11b
  30660b:	75 42                	jne    30664f <vsnprintf+0x3cf>
  30660d:	41 8d 45 ff          	lea    -0x1(%r13),%eax
  306611:	85 c0                	test   %eax,%eax
  306613:	0f 8e 6a 0a 00 00    	jle    307083 <vsnprintf+0xe03>
  306619:	41 8d 45 fe          	lea    -0x2(%r13),%eax
  30661d:	48 89 c1             	mov    %rax,%rcx
  306620:	49 8d 54 04 01       	lea    0x1(%r12,%rax,1),%rdx
  306625:	4c 89 e0             	mov    %r12,%rax
  306628:	0f 1f 84 00 00 00 00 	nopl   0x0(%rax,%rax,1)
  30662f:	00 
  306630:	49 39 c7             	cmp    %rax,%r15
  306633:	76 03                	jbe    306638 <vsnprintf+0x3b8>
  306635:	c6 00 20             	movb   $0x20,(%rax)
  306638:	48 83 c0 01          	add    $0x1,%rax
  30663c:	48 39 d0             	cmp    %rdx,%rax
  30663f:	75 ef                	jne    306630 <vsnprintf+0x3b0>
  306641:	89 c8                	mov    %ecx,%eax
  306643:	4d 8d 64 0c 01       	lea    0x1(%r12,%rcx,1),%r12
  306648:	44 29 e8             	sub    %r13d,%eax
  30664b:	44 8d 68 02          	lea    0x2(%rax),%r13d
  30664f:	41 8b 02             	mov    (%r10),%eax
  306652:	83 f8 2f             	cmp    $0x2f,%eax
  306655:	0f 87 68 03 00 00    	ja     3069c3 <vsnprintf+0x743>
  30665b:	89 c2                	mov    %eax,%edx
  30665d:	49 03 52 10          	add    0x10(%r10),%rdx
  306661:	83 c0 08             	add    $0x8,%eax
  306664:	41 89 02             	mov    %eax,(%r10)
  306667:	4d 39 fc             	cmp    %r15,%r12
  30666a:	73 06                	jae    306672 <vsnprintf+0x3f2>
  30666c:	8b 02                	mov    (%rdx),%eax
  30666e:	41 88 04 24          	mov    %al,(%r12)
  306672:	41 8d 45 ff          	lea    -0x1(%r13),%eax
  306676:	49 8d 74 24 01       	lea    0x1(%r12),%rsi
  30667b:	85 c0                	test   %eax,%eax
  30667d:	0f 8e 3b 08 00 00    	jle    306ebe <vsnprintf+0xc3e>
  306683:	41 8d 45 fe          	lea    -0x2(%r13),%eax
  306687:	48 89 c1             	mov    %rax,%rcx
  30668a:	49 8d 54 04 02       	lea    0x2(%r12,%rax,1),%rdx
  30668f:	48 89 f0             	mov    %rsi,%rax
  306692:	66 0f 1f 44 00 00    	nopw   0x0(%rax,%rax,1)
  306698:	49 39 c7             	cmp    %rax,%r15
  30669b:	76 03                	jbe    3066a0 <vsnprintf+0x420>
  30669d:	c6 00 20             	movb   $0x20,(%rax)
  3066a0:	48 83 c0 01          	add    $0x1,%rax
  3066a4:	48 39 d0             	cmp    %rdx,%rax
  3066a7:	75 ef                	jne    306698 <vsnprintf+0x418>
  3066a9:	89 c8                	mov    %ecx,%eax
  3066ab:	4c 8d 64 0e 01       	lea    0x1(%rsi,%rcx,1),%r12
  3066b0:	0f b6 13             	movzbl (%rbx),%edx
  3066b3:	44 29 e8             	sub    %r13d,%eax
  3066b6:	41 be 03 00 00 00    	mov    $0x3,%r14d
  3066bc:	44 8d 68 02          	lea    0x2(%rax),%r13d
  3066c0:	e9 0b fc ff ff       	jmpq   3062d0 <vsnprintf+0x50>
  3066c5:	48 8d 46 01          	lea    0x1(%rsi),%rax
  3066c9:	48 29 d8             	sub    %rbx,%rax
  3066cc:	48 98                	cltq   
  3066ce:	48 01 c3             	add    %rax,%rbx
  3066d1:	4d 39 fc             	cmp    %r15,%r12
  3066d4:	73 05                	jae    3066db <vsnprintf+0x45b>
  3066d6:	41 c6 04 24 25       	movb   $0x25,(%r12)
  3066db:	49 83 c4 01          	add    $0x1,%r12
  3066df:	0f b6 13             	movzbl (%rbx),%edx
  3066e2:	41 be 06 00 00 00    	mov    $0x6,%r14d
  3066e8:	e9 e3 fb ff ff       	jmpq   3062d0 <vsnprintf+0x50>
  3066ed:	41 83 cb 20          	or     $0x20,%r11d
  3066f1:	41 b9 10 00 00 00    	mov    $0x10,%r9d
  3066f7:	83 f8 4c             	cmp    $0x4c,%eax
  3066fa:	0f 84 20 02 00 00    	je     306920 <vsnprintf+0x6a0>
  306700:	83 f8 6c             	cmp    $0x6c,%eax
  306703:	0f 84 c4 03 00 00    	je     306acd <vsnprintf+0x84d>
  306709:	89 c2                	mov    %eax,%edx
  30670b:	83 e2 df             	and    $0xffffffdf,%edx
  30670e:	83 fa 5a             	cmp    $0x5a,%edx
  306711:	0f 84 69 02 00 00    	je     306980 <vsnprintf+0x700>
  306717:	83 f8 74             	cmp    $0x74,%eax
  30671a:	0f 84 3a 05 00 00    	je     306c5a <vsnprintf+0x9da>
  306720:	83 f8 48             	cmp    $0x48,%eax
  306723:	0f 84 cf 06 00 00    	je     306df8 <vsnprintf+0xb78>
  306729:	83 f8 68             	cmp    $0x68,%eax
  30672c:	0f 84 21 07 00 00    	je     306e53 <vsnprintf+0xbd3>
  306732:	41 f6 c3 02          	test   $0x2,%r11b
  306736:	0f 84 4d 05 00 00    	je     306c89 <vsnprintf+0xa09>
  30673c:	48 8d 46 01          	lea    0x1(%rsi),%rax
  306740:	48 29 d8             	sub    %rbx,%rax
  306743:	48 98                	cltq   
  306745:	48 01 c3             	add    %rax,%rbx
  306748:	41 8b 02             	mov    (%r10),%eax
  30674b:	83 f8 2f             	cmp    $0x2f,%eax
  30674e:	0f 86 0d 09 00 00    	jbe    307061 <vsnprintf+0xde1>
  306754:	49 8b 52 08          	mov    0x8(%r10),%rdx
  306758:	48 8d 42 08          	lea    0x8(%rdx),%rax
  30675c:	49 89 42 08          	mov    %rax,0x8(%r10)
  306760:	48 63 12             	movslq (%rdx),%rdx
  306763:	41 be 10 00 00 00    	mov    $0x10,%r14d
  306769:	e9 4a 05 00 00       	jmpq   306cb8 <vsnprintf+0xa38>
  30676e:	66 90                	xchg   %ax,%ax
  306770:	48 89 f0             	mov    %rsi,%rax
  306773:	48 29 d8             	sub    %rbx,%rax
  306776:	48 98                	cltq   
  306778:	48 01 c3             	add    %rax,%rbx
  30677b:	4d 39 fc             	cmp    %r15,%r12
  30677e:	73 05                	jae    306785 <vsnprintf+0x505>
  306780:	41 c6 04 24 25       	movb   $0x25,(%r12)
  306785:	49 83 c4 01          	add    $0x1,%r12
  306789:	0f b6 13             	movzbl (%rbx),%edx
  30678c:	41 be 07 00 00 00    	mov    $0x7,%r14d
  306792:	e9 39 fb ff ff       	jmpq   3062d0 <vsnprintf+0x50>
  306797:	66 0f 1f 84 00 00 00 	nopw   0x0(%rax,%rax,1)
  30679e:	00 00 
  3067a0:	48 39 c3             	cmp    %rax,%rbx
  3067a3:	0f 85 6b fb ff ff    	jne    306314 <vsnprintf+0x94>
  3067a9:	0f be 50 01          	movsbl 0x1(%rax),%edx
  3067ad:	45 31 db             	xor    %r11d,%r11d
  3067b0:	48 bf f8 ac 34 00 00 	movabs $0x34acf8,%rdi
  3067b7:	00 00 00 
  3067ba:	48 8d 70 01          	lea    0x1(%rax),%rsi
  3067be:	8d 4a e0             	lea    -0x20(%rdx),%ecx
  3067c1:	80 f9 10             	cmp    $0x10,%cl
  3067c4:	77 31                	ja     3067f7 <vsnprintf+0x577>
  3067c6:	66 2e 0f 1f 84 00 00 	nopw   %cs:0x0(%rax,%rax,1)
  3067cd:	00 00 00 
  3067d0:	0f b6 c9             	movzbl %cl,%ecx
  3067d3:	ff 24 cf             	jmpq   *(%rdi,%rcx,8)
  3067d6:	66 2e 0f 1f 84 00 00 	nopw   %cs:0x0(%rax,%rax,1)
  3067dd:	00 00 00 
  3067e0:	41 83 cb 01          	or     $0x1,%r11d
  3067e4:	48 89 f0             	mov    %rsi,%rax
  3067e7:	0f be 50 01          	movsbl 0x1(%rax),%edx
  3067eb:	48 8d 70 01          	lea    0x1(%rax),%rsi
  3067ef:	8d 4a e0             	lea    -0x20(%rdx),%ecx
  3067f2:	80 f9 10             	cmp    $0x10,%cl
  3067f5:	76 d9                	jbe    3067d0 <vsnprintf+0x550>
  3067f7:	48 b9 20 82 34 00 00 	movabs $0x348220,%rcx
  3067fe:	00 00 00 
  306801:	0f b6 fa             	movzbl %dl,%edi
  306804:	f6 04 39 04          	testb  $0x4,(%rcx,%rdi,1)
  306808:	0f 85 4a 01 00 00    	jne    306958 <vsnprintf+0x6d8>
  30680e:	80 fa 2a             	cmp    $0x2a,%dl
  306811:	41 bd ff ff ff ff    	mov    $0xffffffff,%r13d
  306817:	0f 85 af fb ff ff    	jne    3063cc <vsnprintf+0x14c>
  30681d:	48 83 c0 02          	add    $0x2,%rax
  306821:	48 29 d8             	sub    %rbx,%rax
  306824:	48 98                	cltq   
  306826:	48 01 c3             	add    %rax,%rbx
  306829:	41 8b 02             	mov    (%r10),%eax
  30682c:	83 f8 2f             	cmp    $0x2f,%eax
  30682f:	0f 87 7d 01 00 00    	ja     3069b2 <vsnprintf+0x732>
  306835:	89 c2                	mov    %eax,%edx
  306837:	49 03 52 10          	add    0x10(%r10),%rdx
  30683b:	83 c0 08             	add    $0x8,%eax
  30683e:	41 89 02             	mov    %eax,(%r10)
  306841:	44 8b 2a             	mov    (%rdx),%r13d
  306844:	41 be 01 00 00 00    	mov    $0x1,%r14d
  30684a:	0f b6 13             	movzbl (%rbx),%edx
  30684d:	e9 7e fa ff ff       	jmpq   3062d0 <vsnprintf+0x50>
  306852:	66 0f 1f 44 00 00    	nopw   0x0(%rax,%rax,1)
  306858:	41 83 cb 10          	or     $0x10,%r11d
  30685c:	eb 86                	jmp    3067e4 <vsnprintf+0x564>
  30685e:	66 90                	xchg   %ax,%ax
  306860:	41 83 cb 04          	or     $0x4,%r11d
  306864:	e9 7b ff ff ff       	jmpq   3067e4 <vsnprintf+0x564>
  306869:	0f 1f 80 00 00 00 00 	nopl   0x0(%rax)
  306870:	41 83 cb 40          	or     $0x40,%r11d
  306874:	e9 6b ff ff ff       	jmpq   3067e4 <vsnprintf+0x564>
  306879:	0f 1f 80 00 00 00 00 	nopl   0x0(%rax)
  306880:	41 83 cb 08          	or     $0x8,%r11d
  306884:	e9 5b ff ff ff       	jmpq   3067e4 <vsnprintf+0x564>
  306889:	0f 1f 80 00 00 00 00 	nopl   0x0(%rax)
  306890:	8b 7d 8c             	mov    -0x74(%rbp),%edi
  306893:	b8 00 00 00 00       	mov    $0x0,%eax
  306898:	48 89 de             	mov    %rbx,%rsi
  30689b:	85 ff                	test   %edi,%edi
  30689d:	0f 49 c7             	cmovns %edi,%eax
  3068a0:	89 45 8c             	mov    %eax,-0x74(%rbp)
  3068a3:	e9 34 fb ff ff       	jmpq   3063dc <vsnprintf+0x15c>
  3068a8:	0f 1f 84 00 00 00 00 	nopl   0x0(%rax,%rax,1)
  3068af:	00 
  3068b0:	0f b6 46 01          	movzbl 0x1(%rsi),%eax
  3068b4:	48 b9 20 82 34 00 00 	movabs $0x348220,%rcx
  3068bb:	00 00 00 
  3068be:	48 8d 7e 01          	lea    0x1(%rsi),%rdi
  3068c2:	f6 04 01 04          	testb  $0x4,(%rcx,%rax,1)
  3068c6:	48 89 c2             	mov    %rax,%rdx
  3068c9:	0f 84 62 01 00 00    	je     306a31 <vsnprintf+0x7b1>
  3068cf:	31 c0                	xor    %eax,%eax
  3068d1:	0f 1f 80 00 00 00 00 	nopl   0x0(%rax)
  3068d8:	48 83 c7 01          	add    $0x1,%rdi
  3068dc:	0f b6 37             	movzbl (%rdi),%esi
  3068df:	8d 04 80             	lea    (%rax,%rax,4),%eax
  3068e2:	0f be d2             	movsbl %dl,%edx
  3068e5:	8d 44 42 d0          	lea    -0x30(%rdx,%rax,2),%eax
  3068e9:	f6 04 31 04          	testb  $0x4,(%rcx,%rsi,1)
  3068ed:	48 89 f2             	mov    %rsi,%rdx
  3068f0:	75 e6                	jne    3068d8 <vsnprintf+0x658>
  3068f2:	85 c0                	test   %eax,%eax
  3068f4:	b9 00 00 00 00       	mov    $0x0,%ecx
  3068f9:	48 89 fe             	mov    %rdi,%rsi
  3068fc:	0f 49 c8             	cmovns %eax,%ecx
  3068ff:	89 4d 8c             	mov    %ecx,-0x74(%rbp)
  306902:	e9 d5 fa ff ff       	jmpq   3063dc <vsnprintf+0x15c>
  306907:	66 0f 1f 84 00 00 00 	nopw   0x0(%rax,%rax,1)
  30690e:	00 00 
  306910:	41 f7 dd             	neg    %r13d
  306913:	41 83 cb 10          	or     $0x10,%r11d
  306917:	e9 ad fa ff ff       	jmpq   3063c9 <vsnprintf+0x149>
  30691c:	0f 1f 40 00          	nopl   0x0(%rax)
  306920:	48 8d 46 01          	lea    0x1(%rsi),%rax
  306924:	48 29 d8             	sub    %rbx,%rax
  306927:	48 98                	cltq   
  306929:	48 01 c3             	add    %rax,%rbx
  30692c:	41 8b 02             	mov    (%r10),%eax
  30692f:	83 f8 2f             	cmp    $0x2f,%eax
  306932:	0f 86 d8 05 00 00    	jbe    306f10 <vsnprintf+0xc90>
  306938:	49 8b 52 08          	mov    0x8(%r10),%rdx
  30693c:	48 8d 42 08          	lea    0x8(%rdx),%rax
  306940:	49 89 42 08          	mov    %rax,0x8(%r10)
  306944:	48 8b 12             	mov    (%rdx),%rdx
  306947:	41 be 08 00 00 00    	mov    $0x8,%r14d
  30694d:	e9 66 03 00 00       	jmpq   306cb8 <vsnprintf+0xa38>
  306952:	66 0f 1f 44 00 00    	nopw   0x0(%rax,%rax,1)
  306958:	45 31 ed             	xor    %r13d,%r13d
  30695b:	0f 1f 44 00 00       	nopl   0x0(%rax,%rax,1)
  306960:	43 8d 44 ad 00       	lea    0x0(%r13,%r13,4),%eax
  306965:	48 83 c6 01          	add    $0x1,%rsi
  306969:	44 8d 6c 42 d0       	lea    -0x30(%rdx,%rax,2),%r13d
  30696e:	0f be 16             	movsbl (%rsi),%edx
  306971:	0f b6 c2             	movzbl %dl,%eax
  306974:	f6 04 01 04          	testb  $0x4,(%rcx,%rax,1)
  306978:	75 e6                	jne    306960 <vsnprintf+0x6e0>
  30697a:	e9 4d fa ff ff       	jmpq   3063cc <vsnprintf+0x14c>
  30697f:	90                   	nop
  306980:	48 8d 46 01          	lea    0x1(%rsi),%rax
  306984:	48 29 d8             	sub    %rbx,%rax
  306987:	48 98                	cltq   
  306989:	48 01 c3             	add    %rax,%rbx
  30698c:	41 8b 02             	mov    (%r10),%eax
  30698f:	83 f8 2f             	cmp    $0x2f,%eax
  306992:	0f 86 89 05 00 00    	jbe    306f21 <vsnprintf+0xca1>
  306998:	49 8b 52 08          	mov    0x8(%r10),%rdx
  30699c:	48 8d 42 08          	lea    0x8(%rdx),%rax
  3069a0:	49 89 42 08          	mov    %rax,0x8(%r10)
  3069a4:	48 8b 12             	mov    (%rdx),%rdx
  3069a7:	41 be 12 00 00 00    	mov    $0x12,%r14d
  3069ad:	e9 06 03 00 00       	jmpq   306cb8 <vsnprintf+0xa38>
  3069b2:	49 8b 52 08          	mov    0x8(%r10),%rdx
  3069b6:	48 8d 42 08          	lea    0x8(%rdx),%rax
  3069ba:	49 89 42 08          	mov    %rax,0x8(%r10)
  3069be:	e9 7e fe ff ff       	jmpq   306841 <vsnprintf+0x5c1>
  3069c3:	49 8b 52 08          	mov    0x8(%r10),%rdx
  3069c7:	48 8d 42 08          	lea    0x8(%rdx),%rax
  3069cb:	49 89 42 08          	mov    %rax,0x8(%r10)
  3069cf:	e9 93 fc ff ff       	jmpq   306667 <vsnprintf+0x3e7>
  3069d4:	49 8b 52 08          	mov    0x8(%r10),%rdx
  3069d8:	48 8d 42 08          	lea    0x8(%rdx),%rax
  3069dc:	49 89 42 08          	mov    %rax,0x8(%r10)
  3069e0:	e9 db fa ff ff       	jmpq   3064c0 <vsnprintf+0x240>
  3069e5:	49 8b 52 08          	mov    0x8(%r10),%rdx
  3069e9:	48 8d 42 08          	lea    0x8(%rdx),%rax
  3069ed:	49 89 42 08          	mov    %rax,0x8(%r10)
  3069f1:	e9 5b fa ff ff       	jmpq   306451 <vsnprintf+0x1d1>
  3069f6:	48 89 f8             	mov    %rdi,%rax
  3069f9:	49 c7 c7 ff ff ff ff 	mov    $0xffffffffffffffff,%r15
  306a00:	48 f7 d0             	not    %rax
  306a03:	48 89 45 80          	mov    %rax,-0x80(%rbp)
  306a07:	e9 ae f8 ff ff       	jmpq   3062ba <vsnprintf+0x3a>
  306a0c:	41 b9 08 00 00 00    	mov    $0x8,%r9d
  306a12:	e9 e0 fc ff ff       	jmpq   3066f7 <vsnprintf+0x477>
  306a17:	41 83 cb 02          	or     $0x2,%r11d
  306a1b:	41 b9 0a 00 00 00    	mov    $0xa,%r9d
  306a21:	e9 d1 fc ff ff       	jmpq   3066f7 <vsnprintf+0x477>
  306a26:	41 b9 0a 00 00 00    	mov    $0xa,%r9d
  306a2c:	e9 c6 fc ff ff       	jmpq   3066f7 <vsnprintf+0x477>
  306a31:	3c 2a                	cmp    $0x2a,%al
  306a33:	74 57                	je     306a8c <vsnprintf+0x80c>
  306a35:	48 89 fe             	mov    %rdi,%rsi
  306a38:	e9 9f f9 ff ff       	jmpq   3063dc <vsnprintf+0x15c>
  306a3d:	83 f8 2f             	cmp    $0x2f,%eax
  306a40:	0f 87 03 02 00 00    	ja     306c49 <vsnprintf+0x9c9>
  306a46:	89 c2                	mov    %eax,%edx
  306a48:	49 03 52 10          	add    0x10(%r10),%rdx
  306a4c:	83 c0 08             	add    $0x8,%eax
  306a4f:	41 89 02             	mov    %eax,(%r10)
  306a52:	48 8b 02             	mov    (%rdx),%rax
  306a55:	4c 89 e2             	mov    %r12,%rdx
  306a58:	48 2b 95 78 ff ff ff 	sub    -0x88(%rbp),%rdx
  306a5f:	41 be 11 00 00 00    	mov    $0x11,%r14d
  306a65:	89 10                	mov    %edx,(%rax)
  306a67:	0f b6 13             	movzbl (%rbx),%edx
  306a6a:	e9 61 f8 ff ff       	jmpq   3062d0 <vsnprintf+0x50>
  306a6f:	41 8b 02             	mov    (%r10),%eax
  306a72:	83 f8 2f             	cmp    $0x2f,%eax
  306a75:	0f 86 56 fb ff ff    	jbe    3065d1 <vsnprintf+0x351>
  306a7b:	49 8b 52 08          	mov    0x8(%r10),%rdx
  306a7f:	48 8d 42 08          	lea    0x8(%rdx),%rax
  306a83:	49 89 42 08          	mov    %rax,0x8(%r10)
  306a87:	e9 51 fb ff ff       	jmpq   3065dd <vsnprintf+0x35d>
  306a8c:	48 8d 46 02          	lea    0x2(%rsi),%rax
  306a90:	48 29 d8             	sub    %rbx,%rax
  306a93:	48 98                	cltq   
  306a95:	48 01 c3             	add    %rax,%rbx
  306a98:	41 8b 02             	mov    (%r10),%eax
  306a9b:	83 f8 2f             	cmp    $0x2f,%eax
  306a9e:	76 1f                	jbe    306abf <vsnprintf+0x83f>
  306aa0:	49 8b 52 08          	mov    0x8(%r10),%rdx
  306aa4:	48 8d 42 08          	lea    0x8(%rdx),%rax
  306aa8:	49 89 42 08          	mov    %rax,0x8(%r10)
  306aac:	8b 02                	mov    (%rdx),%eax
  306aae:	41 be 02 00 00 00    	mov    $0x2,%r14d
  306ab4:	0f b6 13             	movzbl (%rbx),%edx
  306ab7:	89 45 8c             	mov    %eax,-0x74(%rbp)
  306aba:	e9 11 f8 ff ff       	jmpq   3062d0 <vsnprintf+0x50>
  306abf:	89 c2                	mov    %eax,%edx
  306ac1:	83 c0 08             	add    $0x8,%eax
  306ac4:	49 03 52 10          	add    0x10(%r10),%rdx
  306ac8:	41 89 02             	mov    %eax,(%r10)
  306acb:	eb df                	jmp    306aac <vsnprintf+0x82c>
  306acd:	41 f6 c3 02          	test   $0x2,%r11b
  306ad1:	74 56                	je     306b29 <vsnprintf+0x8a9>
  306ad3:	48 8d 46 01          	lea    0x1(%rsi),%rax
  306ad7:	48 29 d8             	sub    %rbx,%rax
  306ada:	48 98                	cltq   
  306adc:	48 01 c3             	add    %rax,%rbx
  306adf:	41 8b 02             	mov    (%r10),%eax
  306ae2:	83 f8 2f             	cmp    $0x2f,%eax
  306ae5:	0f 87 58 04 00 00    	ja     306f43 <vsnprintf+0xcc3>
  306aeb:	89 c2                	mov    %eax,%edx
  306aed:	49 03 52 10          	add    0x10(%r10),%rdx
  306af1:	83 c0 08             	add    $0x8,%eax
  306af4:	41 89 02             	mov    %eax,(%r10)
  306af7:	48 8b 12             	mov    (%rdx),%rdx
  306afa:	41 be 0a 00 00 00    	mov    $0xa,%r14d
  306b00:	e9 b3 01 00 00       	jmpq   306cb8 <vsnprintf+0xa38>
  306b05:	83 f8 6c             	cmp    $0x6c,%eax
  306b08:	0f 84 d8 02 00 00    	je     306de6 <vsnprintf+0xb66>
  306b0e:	83 f8 68             	cmp    $0x68,%eax
  306b11:	0f 85 f7 f8 ff ff    	jne    30640e <vsnprintf+0x18e>
  306b17:	0f b6 56 02          	movzbl 0x2(%rsi),%edx
  306b1b:	b8 48 00 00 00       	mov    $0x48,%eax
  306b20:	48 83 c6 02          	add    $0x2,%rsi
  306b24:	e9 e8 f8 ff ff       	jmpq   306411 <vsnprintf+0x191>
  306b29:	48 8d 46 01          	lea    0x1(%rsi),%rax
  306b2d:	48 29 d8             	sub    %rbx,%rax
  306b30:	48 98                	cltq   
  306b32:	48 01 c3             	add    %rax,%rbx
  306b35:	41 8b 02             	mov    (%r10),%eax
  306b38:	83 f8 2f             	cmp    $0x2f,%eax
  306b3b:	0f 86 f1 03 00 00    	jbe    306f32 <vsnprintf+0xcb2>
  306b41:	49 8b 52 08          	mov    0x8(%r10),%rdx
  306b45:	48 8d 42 08          	lea    0x8(%rdx),%rax
  306b49:	49 89 42 08          	mov    %rax,0x8(%r10)
  306b4d:	48 8b 12             	mov    (%rdx),%rdx
  306b50:	41 be 09 00 00 00    	mov    $0x9,%r14d
  306b56:	e9 5d 01 00 00       	jmpq   306cb8 <vsnprintf+0xa38>
  306b5b:	41 c6 47 ff 00       	movb   $0x0,-0x1(%r15)
  306b60:	e9 38 f8 ff ff       	jmpq   30639d <vsnprintf+0x11d>
  306b65:	0f b6 43 02          	movzbl 0x2(%rbx),%eax
  306b69:	3c 34                	cmp    $0x34,%al
  306b6b:	0f 84 90 01 00 00    	je     306d01 <vsnprintf+0xa81>
  306b71:	3c 36                	cmp    $0x36,%al
  306b73:	0f 85 a0 f9 ff ff    	jne    306519 <vsnprintf+0x299>
  306b79:	40 80 fe 49          	cmp    $0x49,%sil
  306b7d:	48 8d 4d a0          	lea    -0x60(%rbp),%rcx
  306b81:	48 be 90 ad 34 00 00 	movabs $0x34ad90,%rsi
  306b88:	00 00 00 
  306b8b:	41 0f 94 c0          	sete   %r8b
  306b8f:	31 c0                	xor    %eax,%eax
  306b91:	0f 1f 80 00 00 00 00 	nopl   0x0(%rax)
  306b98:	0f b6 3c 42          	movzbl (%rdx,%rax,2),%edi
  306b9c:	41 89 f9             	mov    %edi,%r9d
  306b9f:	83 e7 0f             	and    $0xf,%edi
  306ba2:	41 c0 e9 04          	shr    $0x4,%r9b
  306ba6:	0f b6 3c 3e          	movzbl (%rsi,%rdi,1),%edi
  306baa:	41 83 e1 0f          	and    $0xf,%r9d
  306bae:	46 0f b6 0c 0e       	movzbl (%rsi,%r9,1),%r9d
  306bb3:	40 88 79 01          	mov    %dil,0x1(%rcx)
  306bb7:	44 88 09             	mov    %r9b,(%rcx)
  306bba:	0f b6 7c 42 01       	movzbl 0x1(%rdx,%rax,2),%edi
  306bbf:	41 89 f9             	mov    %edi,%r9d
  306bc2:	83 e7 0f             	and    $0xf,%edi
  306bc5:	41 c0 e9 04          	shr    $0x4,%r9b
  306bc9:	0f b6 3c 3e          	movzbl (%rsi,%rdi,1),%edi
  306bcd:	41 83 e1 0f          	and    $0xf,%r9d
  306bd1:	83 f8 07             	cmp    $0x7,%eax
  306bd4:	46 0f b6 0c 0e       	movzbl (%rsi,%r9,1),%r9d
  306bd9:	40 88 79 03          	mov    %dil,0x3(%rcx)
  306bdd:	44 88 49 02          	mov    %r9b,0x2(%rcx)
  306be1:	0f 84 21 05 00 00    	je     307108 <vsnprintf+0xe88>
  306be7:	45 84 c0             	test   %r8b,%r8b
  306bea:	0f 84 18 05 00 00    	je     307108 <vsnprintf+0xe88>
  306bf0:	c6 41 04 3a          	movb   $0x3a,0x4(%rcx)
  306bf4:	48 83 c1 05          	add    $0x5,%rcx
  306bf8:	48 83 c0 01          	add    $0x1,%rax
  306bfc:	48 83 f8 08          	cmp    $0x8,%rax
  306c00:	75 96                	jne    306b98 <vsnprintf+0x918>
  306c02:	4c 89 95 68 ff ff ff 	mov    %r10,-0x98(%rbp)
  306c09:	c6 01 00             	movb   $0x0,(%rcx)
  306c0c:	44 8b 4d 8c          	mov    -0x74(%rbp),%r9d
  306c10:	48 8d 55 a0          	lea    -0x60(%rbp),%rdx
  306c14:	45 89 e8             	mov    %r13d,%r8d
  306c17:	44 89 d9             	mov    %r11d,%ecx
  306c1a:	44 89 9d 70 ff ff ff 	mov    %r11d,-0x90(%rbp)
  306c21:	4c 89 e7             	mov    %r12,%rdi
  306c24:	4c 89 fe             	mov    %r15,%rsi
  306c27:	48 b8 50 53 30 00 00 	movabs $0x305350,%rax
  306c2e:	00 00 00 
  306c31:	ff d0                	callq  *%rax
  306c33:	44 8b 9d 70 ff ff ff 	mov    -0x90(%rbp),%r11d
  306c3a:	49 89 c4             	mov    %rax,%r12
  306c3d:	4c 8b 95 68 ff ff ff 	mov    -0x98(%rbp),%r10
  306c44:	e9 24 f9 ff ff       	jmpq   30656d <vsnprintf+0x2ed>
  306c49:	49 8b 52 08          	mov    0x8(%r10),%rdx
  306c4d:	48 8d 42 08          	lea    0x8(%rdx),%rax
  306c51:	49 89 42 08          	mov    %rax,0x8(%r10)
  306c55:	e9 f8 fd ff ff       	jmpq   306a52 <vsnprintf+0x7d2>
  306c5a:	48 8d 46 01          	lea    0x1(%rsi),%rax
  306c5e:	48 29 d8             	sub    %rbx,%rax
  306c61:	48 98                	cltq   
  306c63:	48 01 c3             	add    %rax,%rbx
  306c66:	41 8b 02             	mov    (%r10),%eax
  306c69:	83 f8 2f             	cmp    $0x2f,%eax
  306c6c:	0f 86 00 04 00 00    	jbe    307072 <vsnprintf+0xdf2>
  306c72:	49 8b 52 08          	mov    0x8(%r10),%rdx
  306c76:	48 8d 42 08          	lea    0x8(%rdx),%rax
  306c7a:	49 89 42 08          	mov    %rax,0x8(%r10)
  306c7e:	48 8b 12             	mov    (%rdx),%rdx
  306c81:	41 be 13 00 00 00    	mov    $0x13,%r14d
  306c87:	eb 2f                	jmp    306cb8 <vsnprintf+0xa38>
  306c89:	48 8d 46 01          	lea    0x1(%rsi),%rax
  306c8d:	48 29 d8             	sub    %rbx,%rax
  306c90:	48 98                	cltq   
  306c92:	48 01 c3             	add    %rax,%rbx
  306c95:	41 8b 02             	mov    (%r10),%eax
  306c98:	83 f8 2f             	cmp    $0x2f,%eax
  306c9b:	0f 86 ea 03 00 00    	jbe    30708b <vsnprintf+0xe0b>
  306ca1:	49 8b 52 08          	mov    0x8(%r10),%rdx
  306ca5:	48 8d 42 08          	lea    0x8(%rdx),%rax
  306ca9:	49 89 42 08          	mov    %rax,0x8(%r10)
  306cad:	8b 12                	mov    (%rdx),%edx
  306caf:	41 be 0f 00 00 00    	mov    $0xf,%r14d
  306cb5:	0f 1f 00             	nopl   (%rax)
  306cb8:	8b 45 8c             	mov    -0x74(%rbp),%eax
  306cbb:	48 83 ec 08          	sub    $0x8,%rsp
  306cbf:	44 89 d9             	mov    %r11d,%ecx
  306cc2:	4c 89 95 68 ff ff ff 	mov    %r10,-0x98(%rbp)
  306cc9:	44 89 9d 70 ff ff ff 	mov    %r11d,-0x90(%rbp)
  306cd0:	4c 89 e7             	mov    %r12,%rdi
  306cd3:	45 89 e8             	mov    %r13d,%r8d
  306cd6:	4c 89 fe             	mov    %r15,%rsi
  306cd9:	50                   	push   %rax
  306cda:	48 b8 60 4f 30 00 00 	movabs $0x304f60,%rax
  306ce1:	00 00 00 
  306ce4:	ff d0                	callq  *%rax
  306ce6:	0f b6 13             	movzbl (%rbx),%edx
  306ce9:	49 89 c4             	mov    %rax,%r12
  306cec:	44 8b 9d 70 ff ff ff 	mov    -0x90(%rbp),%r11d
  306cf3:	58                   	pop    %rax
  306cf4:	4c 8b 95 68 ff ff ff 	mov    -0x98(%rbp),%r10
  306cfb:	59                   	pop    %rcx
  306cfc:	e9 cf f5 ff ff       	jmpq   3062d0 <vsnprintf+0x50>
  306d01:	48 8d 42 04          	lea    0x4(%rdx),%rax
  306d05:	4c 8d 75 a0          	lea    -0x60(%rbp),%r14
  306d09:	40 80 fe 69          	cmp    $0x69,%sil
  306d0d:	44 89 5d 88          	mov    %r11d,-0x78(%rbp)
  306d11:	0f 94 85 60 ff ff ff 	sete   -0xa0(%rbp)
  306d18:	48 89 85 68 ff ff ff 	mov    %rax,-0x98(%rbp)
  306d1f:	48 8d 42 03          	lea    0x3(%rdx),%rax
  306d23:	4d 89 f3             	mov    %r14,%r11
  306d26:	4d 89 d6             	mov    %r10,%r14
  306d29:	49 89 d2             	mov    %rdx,%r10
  306d2c:	48 89 85 70 ff ff ff 	mov    %rax,-0x90(%rbp)
  306d33:	41 0f b6 32          	movzbl (%r10),%esi
  306d37:	48 8d 7d 90          	lea    -0x70(%rbp),%rdi
  306d3b:	48 b8 50 4d 30 00 00 	movabs $0x304d50,%rax
  306d42:	00 00 00 
  306d45:	ff d0                	callq  *%rax
  306d47:	48 8d 7d 90          	lea    -0x70(%rbp),%rdi
  306d4b:	48 29 f8             	sub    %rdi,%rax
  306d4e:	83 f8 02             	cmp    $0x2,%eax
  306d51:	7f 1f                	jg     306d72 <vsnprintf+0xaf2>
  306d53:	80 bd 60 ff ff ff 00 	cmpb   $0x0,-0xa0(%rbp)
  306d5a:	74 16                	je     306d72 <vsnprintf+0xaf2>
  306d5c:	83 f8 02             	cmp    $0x2,%eax
  306d5f:	41 c6 03 30          	movb   $0x30,(%r11)
  306d63:	0f 84 ef 02 00 00    	je     307058 <vsnprintf+0xdd8>
  306d69:	41 c6 43 01 30       	movb   $0x30,0x1(%r11)
  306d6e:	49 83 c3 02          	add    $0x2,%r11
  306d72:	85 c0                	test   %eax,%eax
  306d74:	8d 78 ff             	lea    -0x1(%rax),%edi
  306d77:	4c 89 d9             	mov    %r11,%rcx
  306d7a:	74 1e                	je     306d9a <vsnprintf+0xb1a>
  306d7c:	89 f8                	mov    %edi,%eax
  306d7e:	48 63 d0             	movslq %eax,%rdx
  306d81:	83 e8 01             	sub    $0x1,%eax
  306d84:	48 83 c1 01          	add    $0x1,%rcx
  306d88:	0f b6 54 15 90       	movzbl -0x70(%rbp,%rdx,1),%edx
  306d8d:	88 51 ff             	mov    %dl,-0x1(%rcx)
  306d90:	83 f8 ff             	cmp    $0xffffffff,%eax
  306d93:	75 e9                	jne    306d7e <vsnprintf+0xafe>
  306d95:	49 8d 4c 3b 01       	lea    0x1(%r11,%rdi,1),%rcx
  306d9a:	4c 3b 95 70 ff ff ff 	cmp    -0x90(%rbp),%r10
  306da1:	0f 84 5d 01 00 00    	je     306f04 <vsnprintf+0xc84>
  306da7:	49 83 c2 01          	add    $0x1,%r10
  306dab:	4c 3b 95 68 ff ff ff 	cmp    -0x98(%rbp),%r10
  306db2:	4c 8d 59 01          	lea    0x1(%rcx),%r11
  306db6:	c6 01 2e             	movb   $0x2e,(%rcx)
  306db9:	0f 85 74 ff ff ff    	jne    306d33 <vsnprintf+0xab3>
  306dbf:	4d 89 f2             	mov    %r14,%r10
  306dc2:	4d 89 de             	mov    %r11,%r14
  306dc5:	44 8b 5d 88          	mov    -0x78(%rbp),%r11d
  306dc9:	4c 89 f1             	mov    %r14,%rcx
  306dcc:	e9 31 fe ff ff       	jmpq   306c02 <vsnprintf+0x982>
  306dd1:	0f 1f 80 00 00 00 00 	nopl   0x0(%rax)
  306dd8:	83 c9 21             	or     $0x21,%ecx
  306ddb:	41 b8 10 00 00 00    	mov    $0x10,%r8d
  306de1:	e9 46 f7 ff ff       	jmpq   30652c <vsnprintf+0x2ac>
  306de6:	0f b6 56 02          	movzbl 0x2(%rsi),%edx
  306dea:	b8 4c 00 00 00       	mov    $0x4c,%eax
  306def:	48 83 c6 02          	add    $0x2,%rsi
  306df3:	e9 19 f6 ff ff       	jmpq   306411 <vsnprintf+0x191>
  306df8:	41 f6 c3 02          	test   $0x2,%r11b
  306dfc:	0f 84 d0 00 00 00    	je     306ed2 <vsnprintf+0xc52>
  306e02:	48 8d 46 01          	lea    0x1(%rsi),%rax
  306e06:	48 29 d8             	sub    %rbx,%rax
  306e09:	48 98                	cltq   
  306e0b:	48 01 c3             	add    %rax,%rbx
  306e0e:	41 8b 02             	mov    (%r10),%eax
  306e11:	83 f8 2f             	cmp    $0x2f,%eax
  306e14:	0f 87 a6 01 00 00    	ja     306fc0 <vsnprintf+0xd40>
  306e1a:	89 c2                	mov    %eax,%edx
  306e1c:	49 03 52 10          	add    0x10(%r10),%rdx
  306e20:	83 c0 08             	add    $0x8,%eax
  306e23:	41 89 02             	mov    %eax,(%r10)
  306e26:	48 0f be 12          	movsbq (%rdx),%rdx
  306e2a:	41 be 0c 00 00 00    	mov    $0xc,%r14d
  306e30:	e9 83 fe ff ff       	jmpq   306cb8 <vsnprintf+0xa38>
  306e35:	48 b8 04 a0 35 00 00 	movabs $0x35a004,%rax
  306e3c:	00 00 00 
  306e3f:	44 8b 20             	mov    (%rax),%r12d
  306e42:	45 85 e4             	test   %r12d,%r12d
  306e45:	0f 84 78 02 00 00    	je     3070c3 <vsnprintf+0xe43>
  306e4b:	45 31 e4             	xor    %r12d,%r12d
  306e4e:	e9 51 f5 ff ff       	jmpq   3063a4 <vsnprintf+0x124>
  306e53:	41 f6 c3 02          	test   $0x2,%r11b
  306e57:	74 33                	je     306e8c <vsnprintf+0xc0c>
  306e59:	48 8d 46 01          	lea    0x1(%rsi),%rax
  306e5d:	48 29 d8             	sub    %rbx,%rax
  306e60:	48 98                	cltq   
  306e62:	48 01 c3             	add    %rax,%rbx
  306e65:	41 8b 02             	mov    (%r10),%eax
  306e68:	83 f8 2f             	cmp    $0x2f,%eax
  306e6b:	0f 87 71 01 00 00    	ja     306fe2 <vsnprintf+0xd62>
  306e71:	89 c2                	mov    %eax,%edx
  306e73:	49 03 52 10          	add    0x10(%r10),%rdx
  306e77:	83 c0 08             	add    $0x8,%eax
  306e7a:	41 89 02             	mov    %eax,(%r10)
  306e7d:	48 0f bf 12          	movswq (%rdx),%rdx
  306e81:	41 be 0e 00 00 00    	mov    $0xe,%r14d
  306e87:	e9 2c fe ff ff       	jmpq   306cb8 <vsnprintf+0xa38>
  306e8c:	48 8d 46 01          	lea    0x1(%rsi),%rax
  306e90:	48 29 d8             	sub    %rbx,%rax
  306e93:	48 98                	cltq   
  306e95:	48 01 c3             	add    %rax,%rbx
  306e98:	41 8b 02             	mov    (%r10),%eax
  306e9b:	83 f8 2f             	cmp    $0x2f,%eax
  306e9e:	0f 87 4f 01 00 00    	ja     306ff3 <vsnprintf+0xd73>
  306ea4:	89 c2                	mov    %eax,%edx
  306ea6:	49 03 52 10          	add    0x10(%r10),%rdx
  306eaa:	83 c0 08             	add    $0x8,%eax
  306ead:	41 89 02             	mov    %eax,(%r10)
  306eb0:	0f b7 12             	movzwl (%rdx),%edx
  306eb3:	41 be 0d 00 00 00    	mov    $0xd,%r14d
  306eb9:	e9 fa fd ff ff       	jmpq   306cb8 <vsnprintf+0xa38>
  306ebe:	0f b6 13             	movzbl (%rbx),%edx
  306ec1:	41 89 c5             	mov    %eax,%r13d
  306ec4:	49 89 f4             	mov    %rsi,%r12
  306ec7:	41 be 03 00 00 00    	mov    $0x3,%r14d
  306ecd:	e9 fe f3 ff ff       	jmpq   3062d0 <vsnprintf+0x50>
  306ed2:	48 8d 46 01          	lea    0x1(%rsi),%rax
  306ed6:	48 29 d8             	sub    %rbx,%rax
  306ed9:	48 98                	cltq   
  306edb:	48 01 c3             	add    %rax,%rbx
  306ede:	41 8b 02             	mov    (%r10),%eax
  306ee1:	83 f8 2f             	cmp    $0x2f,%eax
  306ee4:	0f 87 e7 00 00 00    	ja     306fd1 <vsnprintf+0xd51>
  306eea:	89 c2                	mov    %eax,%edx
  306eec:	49 03 52 10          	add    0x10(%r10),%rdx
  306ef0:	83 c0 08             	add    $0x8,%eax
  306ef3:	41 89 02             	mov    %eax,(%r10)
  306ef6:	0f b6 12             	movzbl (%rdx),%edx
  306ef9:	41 be 0b 00 00 00    	mov    $0xb,%r14d
  306eff:	e9 b4 fd ff ff       	jmpq   306cb8 <vsnprintf+0xa38>
  306f04:	44 8b 5d 88          	mov    -0x78(%rbp),%r11d
  306f08:	4d 89 f2             	mov    %r14,%r10
  306f0b:	e9 f2 fc ff ff       	jmpq   306c02 <vsnprintf+0x982>
  306f10:	89 c2                	mov    %eax,%edx
  306f12:	83 c0 08             	add    $0x8,%eax
  306f15:	49 03 52 10          	add    0x10(%r10),%rdx
  306f19:	41 89 02             	mov    %eax,(%r10)
  306f1c:	e9 23 fa ff ff       	jmpq   306944 <vsnprintf+0x6c4>
  306f21:	89 c2                	mov    %eax,%edx
  306f23:	83 c0 08             	add    $0x8,%eax
  306f26:	49 03 52 10          	add    0x10(%r10),%rdx
  306f2a:	41 89 02             	mov    %eax,(%r10)
  306f2d:	e9 72 fa ff ff       	jmpq   3069a4 <vsnprintf+0x724>
  306f32:	89 c2                	mov    %eax,%edx
  306f34:	83 c0 08             	add    $0x8,%eax
  306f37:	49 03 52 10          	add    0x10(%r10),%rdx
  306f3b:	41 89 02             	mov    %eax,(%r10)
  306f3e:	e9 0a fc ff ff       	jmpq   306b4d <vsnprintf+0x8cd>
  306f43:	49 8b 52 08          	mov    0x8(%r10),%rdx
  306f47:	48 8d 42 08          	lea    0x8(%rdx),%rax
  306f4b:	49 89 42 08          	mov    %rax,0x8(%r10)
  306f4f:	e9 a3 fb ff ff       	jmpq   306af7 <vsnprintf+0x877>
  306f54:	40 80 fe 4d          	cmp    $0x4d,%sil
  306f58:	48 8d 7d a0          	lea    -0x60(%rbp),%rdi
  306f5c:	48 be 90 ad 34 00 00 	movabs $0x34ad90,%rsi
  306f63:	00 00 00 
  306f66:	41 0f 94 c0          	sete   %r8b
  306f6a:	31 c0                	xor    %eax,%eax
  306f6c:	0f b6 0c 02          	movzbl (%rdx,%rax,1),%ecx
  306f70:	41 89 c9             	mov    %ecx,%r9d
  306f73:	83 e1 0f             	and    $0xf,%ecx
  306f76:	41 c0 e9 04          	shr    $0x4,%r9b
  306f7a:	0f b6 0c 0e          	movzbl (%rsi,%rcx,1),%ecx
  306f7e:	41 83 e1 0f          	and    $0xf,%r9d
  306f82:	83 f8 05             	cmp    $0x5,%eax
  306f85:	46 0f b6 0c 0e       	movzbl (%rsi,%r9,1),%r9d
  306f8a:	88 4f 01             	mov    %cl,0x1(%rdi)
  306f8d:	44 88 0f             	mov    %r9b,(%rdi)
  306f90:	0f 84 69 01 00 00    	je     3070ff <vsnprintf+0xe7f>
  306f96:	45 84 c0             	test   %r8b,%r8b
  306f99:	0f 84 60 01 00 00    	je     3070ff <vsnprintf+0xe7f>
  306f9f:	c6 47 02 3a          	movb   $0x3a,0x2(%rdi)
  306fa3:	48 83 c7 03          	add    $0x3,%rdi
  306fa7:	48 83 c0 01          	add    $0x1,%rax
  306fab:	48 83 f8 06          	cmp    $0x6,%rax
  306faf:	75 bb                	jne    306f6c <vsnprintf+0xcec>
  306fb1:	4c 89 95 68 ff ff ff 	mov    %r10,-0x98(%rbp)
  306fb8:	c6 07 00             	movb   $0x0,(%rdi)
  306fbb:	e9 4c fc ff ff       	jmpq   306c0c <vsnprintf+0x98c>
  306fc0:	49 8b 52 08          	mov    0x8(%r10),%rdx
  306fc4:	48 8d 42 08          	lea    0x8(%rdx),%rax
  306fc8:	49 89 42 08          	mov    %rax,0x8(%r10)
  306fcc:	e9 55 fe ff ff       	jmpq   306e26 <vsnprintf+0xba6>
  306fd1:	49 8b 52 08          	mov    0x8(%r10),%rdx
  306fd5:	48 8d 42 08          	lea    0x8(%rdx),%rax
  306fd9:	49 89 42 08          	mov    %rax,0x8(%r10)
  306fdd:	e9 14 ff ff ff       	jmpq   306ef6 <vsnprintf+0xc76>
  306fe2:	49 8b 52 08          	mov    0x8(%r10),%rdx
  306fe6:	48 8d 42 08          	lea    0x8(%rdx),%rax
  306fea:	49 89 42 08          	mov    %rax,0x8(%r10)
  306fee:	e9 8a fe ff ff       	jmpq   306e7d <vsnprintf+0xbfd>
  306ff3:	49 8b 52 08          	mov    0x8(%r10),%rdx
  306ff7:	48 8d 42 08          	lea    0x8(%rdx),%rax
  306ffb:	49 89 42 08          	mov    %rax,0x8(%r10)
  306fff:	e9 ac fe ff ff       	jmpq   306eb0 <vsnprintf+0xc30>
  307004:	8b 45 8c             	mov    -0x74(%rbp),%eax
  307007:	48 83 ec 08          	sub    $0x8,%rsp
  30700b:	44 89 d9             	mov    %r11d,%ecx
  30700e:	4c 89 95 68 ff ff ff 	mov    %r10,-0x98(%rbp)
  307015:	44 89 9d 70 ff ff ff 	mov    %r11d,-0x90(%rbp)
  30701c:	41 b9 10 00 00 00    	mov    $0x10,%r9d
  307022:	41 b8 10 00 00 00    	mov    $0x10,%r8d
  307028:	4c 89 e7             	mov    %r12,%rdi
  30702b:	83 c9 61             	or     $0x61,%ecx
  30702e:	50                   	push   %rax
  30702f:	4c 89 fe             	mov    %r15,%rsi
  307032:	48 b8 60 4f 30 00 00 	movabs $0x304f60,%rax
  307039:	00 00 00 
  30703c:	ff d0                	callq  *%rax
  30703e:	41 58                	pop    %r8
  307040:	49 89 c4             	mov    %rax,%r12
  307043:	44 8b 9d 70 ff ff ff 	mov    -0x90(%rbp),%r11d
  30704a:	4c 8b 95 68 ff ff ff 	mov    -0x98(%rbp),%r10
  307051:	41 59                	pop    %r9
  307053:	e9 15 f5 ff ff       	jmpq   30656d <vsnprintf+0x2ed>
  307058:	49 83 c3 01          	add    $0x1,%r11
  30705c:	e9 11 fd ff ff       	jmpq   306d72 <vsnprintf+0xaf2>
  307061:	89 c2                	mov    %eax,%edx
  307063:	83 c0 08             	add    $0x8,%eax
  307066:	49 03 52 10          	add    0x10(%r10),%rdx
  30706a:	41 89 02             	mov    %eax,(%r10)
  30706d:	e9 ee f6 ff ff       	jmpq   306760 <vsnprintf+0x4e0>
  307072:	89 c2                	mov    %eax,%edx
  307074:	83 c0 08             	add    $0x8,%eax
  307077:	49 03 52 10          	add    0x10(%r10),%rdx
  30707b:	41 89 02             	mov    %eax,(%r10)
  30707e:	e9 fb fb ff ff       	jmpq   306c7e <vsnprintf+0x9fe>
  307083:	41 89 c5             	mov    %eax,%r13d
  307086:	e9 c4 f5 ff ff       	jmpq   30664f <vsnprintf+0x3cf>
  30708b:	89 c2                	mov    %eax,%edx
  30708d:	83 c0 08             	add    $0x8,%eax
  307090:	49 03 52 10          	add    0x10(%r10),%rdx
  307094:	41 89 02             	mov    %eax,(%r10)
  307097:	e9 11 fc ff ff       	jmpq   306cad <vsnprintf+0xa2d>
  30709c:	4c 89 95 68 ff ff ff 	mov    %r10,-0x98(%rbp)
  3070a3:	44 8b 4d 8c          	mov    -0x74(%rbp),%r9d
  3070a7:	45 89 e8             	mov    %r13d,%r8d
  3070aa:	44 89 d9             	mov    %r11d,%ecx
  3070ad:	44 89 9d 70 ff ff ff 	mov    %r11d,-0x90(%rbp)
  3070b4:	48 ba d3 f4 34 00 00 	movabs $0x34f4d3,%rdx
  3070bb:	00 00 00 
  3070be:	e9 5e fb ff ff       	jmpq   306c21 <vsnprintf+0x9a1>
  3070c3:	31 c0                	xor    %eax,%eax
  3070c5:	48 ba f9 f4 34 00 00 	movabs $0x34f4f9,%rdx
  3070cc:	00 00 00 
  3070cf:	be 4b 04 00 00       	mov    $0x44b,%esi
  3070d4:	48 bf 01 f5 34 00 00 	movabs $0x34f501,%rdi
  3070db:	00 00 00 
  3070de:	48 b9 c0 61 30 00 00 	movabs $0x3061c0,%rcx
  3070e5:	00 00 00 
  3070e8:	ff d1                	callq  *%rcx
  3070ea:	48 b8 04 a0 35 00 00 	movabs $0x35a004,%rax
  3070f1:	00 00 00 
  3070f4:	c7 00 01 00 00 00    	movl   $0x1,(%rax)
  3070fa:	e9 a5 f2 ff ff       	jmpq   3063a4 <vsnprintf+0x124>
  3070ff:	48 83 c7 02          	add    $0x2,%rdi
  307103:	e9 9f fe ff ff       	jmpq   306fa7 <vsnprintf+0xd27>
  307108:	48 83 c1 04          	add    $0x4,%rcx
  30710c:	e9 e7 fa ff ff       	jmpq   306bf8 <vsnprintf+0x978>
  307111:	0f 1f 44 00 00       	nopl   0x0(%rax,%rax,1)
  307116:	66 2e 0f 1f 84 00 00 	nopw   %cs:0x0(%rax,%rax,1)
  30711d:	00 00 00 

0000000000307120 <vscnprintf>:
  307120:	55                   	push   %rbp
  307121:	48 b8 80 62 30 00 00 	movabs $0x306280,%rax
  307128:	00 00 00 
  30712b:	48 89 e5             	mov    %rsp,%rbp
  30712e:	53                   	push   %rbx
  30712f:	48 89 f3             	mov    %rsi,%rbx
  307132:	48 83 ec 08          	sub    $0x8,%rsp
  307136:	ff d0                	callq  *%rax
  307138:	8d 53 ff             	lea    -0x1(%rbx),%edx
  30713b:	48 63 c8             	movslq %eax,%rcx
  30713e:	48 39 cb             	cmp    %rcx,%rbx
  307141:	0f 46 c2             	cmovbe %edx,%eax
  307144:	48 83 c4 08          	add    $0x8,%rsp
  307148:	5b                   	pop    %rbx
  307149:	5d                   	pop    %rbp
  30714a:	c3                   	retq   
  30714b:	0f 1f 44 00 00       	nopl   0x0(%rax,%rax,1)

0000000000307150 <snprintf>:
  307150:	55                   	push   %rbp
  307151:	48 89 e5             	mov    %rsp,%rbp
  307154:	48 81 ec d0 00 00 00 	sub    $0xd0,%rsp
  30715b:	84 c0                	test   %al,%al
  30715d:	48 89 8d 68 ff ff ff 	mov    %rcx,-0x98(%rbp)
  307164:	4c 89 85 70 ff ff ff 	mov    %r8,-0x90(%rbp)
  30716b:	4c 89 8d 78 ff ff ff 	mov    %r9,-0x88(%rbp)
  307172:	74 20                	je     307194 <snprintf+0x44>
  307174:	0f 29 45 80          	movaps %xmm0,-0x80(%rbp)
  307178:	0f 29 4d 90          	movaps %xmm1,-0x70(%rbp)
  30717c:	0f 29 55 a0          	movaps %xmm2,-0x60(%rbp)
  307180:	0f 29 5d b0          	movaps %xmm3,-0x50(%rbp)
  307184:	0f 29 65 c0          	movaps %xmm4,-0x40(%rbp)
  307188:	0f 29 6d d0          	movaps %xmm5,-0x30(%rbp)
  30718c:	0f 29 75 e0          	movaps %xmm6,-0x20(%rbp)
  307190:	0f 29 7d f0          	movaps %xmm7,-0x10(%rbp)
  307194:	48 8d 45 10          	lea    0x10(%rbp),%rax
  307198:	48 8d 8d 38 ff ff ff 	lea    -0xc8(%rbp),%rcx
  30719f:	48 89 85 40 ff ff ff 	mov    %rax,-0xc0(%rbp)
  3071a6:	48 8d 85 50 ff ff ff 	lea    -0xb0(%rbp),%rax
  3071ad:	c7 85 38 ff ff ff 18 	movl   $0x18,-0xc8(%rbp)
  3071b4:	00 00 00 
  3071b7:	c7 85 3c ff ff ff 30 	movl   $0x30,-0xc4(%rbp)
  3071be:	00 00 00 
  3071c1:	48 89 85 48 ff ff ff 	mov    %rax,-0xb8(%rbp)
  3071c8:	48 b8 80 62 30 00 00 	movabs $0x306280,%rax
  3071cf:	00 00 00 
  3071d2:	ff d0                	callq  *%rax
  3071d4:	c9                   	leaveq 
  3071d5:	c3                   	retq   
  3071d6:	66 2e 0f 1f 84 00 00 	nopw   %cs:0x0(%rax,%rax,1)
  3071dd:	00 00 00 

00000000003071e0 <scnprintf>:
  3071e0:	55                   	push   %rbp
  3071e1:	48 89 e5             	mov    %rsp,%rbp
  3071e4:	53                   	push   %rbx
  3071e5:	48 89 f3             	mov    %rsi,%rbx
  3071e8:	48 81 ec d8 00 00 00 	sub    $0xd8,%rsp
  3071ef:	84 c0                	test   %al,%al
  3071f1:	48 89 8d 58 ff ff ff 	mov    %rcx,-0xa8(%rbp)
  3071f8:	4c 89 85 60 ff ff ff 	mov    %r8,-0xa0(%rbp)
  3071ff:	4c 89 8d 68 ff ff ff 	mov    %r9,-0x98(%rbp)
  307206:	74 23                	je     30722b <scnprintf+0x4b>
  307208:	0f 29 85 70 ff ff ff 	movaps %xmm0,-0x90(%rbp)
  30720f:	0f 29 4d 80          	movaps %xmm1,-0x80(%rbp)
  307213:	0f 29 55 90          	movaps %xmm2,-0x70(%rbp)
  307217:	0f 29 5d a0          	movaps %xmm3,-0x60(%rbp)
  30721b:	0f 29 65 b0          	movaps %xmm4,-0x50(%rbp)
  30721f:	0f 29 6d c0          	movaps %xmm5,-0x40(%rbp)
  307223:	0f 29 75 d0          	movaps %xmm6,-0x30(%rbp)
  307227:	0f 29 7d e0          	movaps %xmm7,-0x20(%rbp)
  30722b:	48 8d 45 10          	lea    0x10(%rbp),%rax
  30722f:	48 8d 8d 28 ff ff ff 	lea    -0xd8(%rbp),%rcx
  307236:	48 89 de             	mov    %rbx,%rsi
  307239:	48 89 85 30 ff ff ff 	mov    %rax,-0xd0(%rbp)
  307240:	48 8d 85 40 ff ff ff 	lea    -0xc0(%rbp),%rax
  307247:	c7 85 28 ff ff ff 18 	movl   $0x18,-0xd8(%rbp)
  30724e:	00 00 00 
  307251:	c7 85 2c ff ff ff 30 	movl   $0x30,-0xd4(%rbp)
  307258:	00 00 00 
  30725b:	48 89 85 38 ff ff ff 	mov    %rax,-0xc8(%rbp)
  307262:	48 b8 80 62 30 00 00 	movabs $0x306280,%rax
  307269:	00 00 00 
  30726c:	ff d0                	callq  *%rax
  30726e:	8d 53 ff             	lea    -0x1(%rbx),%edx
  307271:	48 63 c8             	movslq %eax,%rcx
  307274:	48 39 cb             	cmp    %rcx,%rbx
  307277:	0f 46 c2             	cmovbe %edx,%eax
  30727a:	48 81 c4 d8 00 00 00 	add    $0xd8,%rsp
  307281:	5b                   	pop    %rbx
  307282:	5d                   	pop    %rbp
  307283:	c3                   	retq   
  307284:	66 90                	xchg   %ax,%ax
  307286:	66 2e 0f 1f 84 00 00 	nopw   %cs:0x0(%rax,%rax,1)
  30728d:	00 00 00 

0000000000307290 <vsprintf>:
  307290:	55                   	push   %rbp
  307291:	48 89 d1             	mov    %rdx,%rcx
  307294:	48 b8 80 62 30 00 00 	movabs $0x306280,%rax
  30729b:	00 00 00 
  30729e:	48 89 f2             	mov    %rsi,%rdx
  3072a1:	be ff ff ff 7f       	mov    $0x7fffffff,%esi
  3072a6:	48 89 e5             	mov    %rsp,%rbp
  3072a9:	5d                   	pop    %rbp
  3072aa:	ff e0                	jmpq   *%rax
  3072ac:	0f 1f 40 00          	nopl   0x0(%rax)

00000000003072b0 <sprintf>:
  3072b0:	55                   	push   %rbp
  3072b1:	48 89 e5             	mov    %rsp,%rbp
  3072b4:	48 81 ec d0 00 00 00 	sub    $0xd0,%rsp
  3072bb:	84 c0                	test   %al,%al
  3072bd:	48 89 95 60 ff ff ff 	mov    %rdx,-0xa0(%rbp)
  3072c4:	48 89 8d 68 ff ff ff 	mov    %rcx,-0x98(%rbp)
  3072cb:	4c 89 85 70 ff ff ff 	mov    %r8,-0x90(%rbp)
  3072d2:	4c 89 8d 78 ff ff ff 	mov    %r9,-0x88(%rbp)
  3072d9:	74 20                	je     3072fb <sprintf+0x4b>
  3072db:	0f 29 45 80          	movaps %xmm0,-0x80(%rbp)
  3072df:	0f 29 4d 90          	movaps %xmm1,-0x70(%rbp)
  3072e3:	0f 29 55 a0          	movaps %xmm2,-0x60(%rbp)
  3072e7:	0f 29 5d b0          	movaps %xmm3,-0x50(%rbp)
  3072eb:	0f 29 65 c0          	movaps %xmm4,-0x40(%rbp)
  3072ef:	0f 29 6d d0          	movaps %xmm5,-0x30(%rbp)
  3072f3:	0f 29 75 e0          	movaps %xmm6,-0x20(%rbp)
  3072f7:	0f 29 7d f0          	movaps %xmm7,-0x10(%rbp)
  3072fb:	48 8d 45 10          	lea    0x10(%rbp),%rax
  3072ff:	48 8d 8d 38 ff ff ff 	lea    -0xc8(%rbp),%rcx
  307306:	48 89 f2             	mov    %rsi,%rdx
  307309:	be ff ff ff 7f       	mov    $0x7fffffff,%esi
  30730e:	48 89 85 40 ff ff ff 	mov    %rax,-0xc0(%rbp)
  307315:	48 8d 85 50 ff ff ff 	lea    -0xb0(%rbp),%rax
  30731c:	c7 85 38 ff ff ff 10 	movl   $0x10,-0xc8(%rbp)
  307323:	00 00 00 
  307326:	c7 85 3c ff ff ff 30 	movl   $0x30,-0xc4(%rbp)
  30732d:	00 00 00 
  307330:	48 89 85 48 ff ff ff 	mov    %rax,-0xb8(%rbp)
  307337:	48 b8 80 62 30 00 00 	movabs $0x306280,%rax
  30733e:	00 00 00 
  307341:	ff d0                	callq  *%rax
  307343:	c9                   	leaveq 
  307344:	c3                   	retq   
  307345:	66 2e 0f 1f 84 00 00 	nopw   %cs:0x0(%rax,%rax,1)
  30734c:	00 00 00 
  30734f:	90                   	nop

0000000000307350 <_doprnt>:
  307350:	55                   	push   %rbp
  307351:	48 89 e5             	mov    %rsp,%rbp
  307354:	41 57                	push   %r15
  307356:	41 56                	push   %r14
  307358:	41 55                	push   %r13
  30735a:	41 54                	push   %r12
  30735c:	48 8d 45 90          	lea    -0x70(%rbp),%rax
  307360:	53                   	push   %rbx
  307361:	49 89 fd             	mov    %rdi,%r13
  307364:	49 89 cc             	mov    %rcx,%r12
  307367:	48 83 c0 08          	add    $0x8,%rax
  30736b:	48 81 ec a8 00 00 00 	sub    $0xa8,%rsp
  307372:	48 89 b5 68 ff ff ff 	mov    %rsi,-0x98(%rbp)
  307379:	0f be 37             	movsbl (%rdi),%esi
  30737c:	89 95 54 ff ff ff    	mov    %edx,-0xac(%rbp)
  307382:	4c 89 45 88          	mov    %r8,-0x78(%rbp)
  307386:	48 89 85 48 ff ff ff 	mov    %rax,-0xb8(%rbp)
  30738d:	0f 1f 00             	nopl   (%rax)
  307390:	40 84 f6             	test   %sil,%sil
  307393:	74 1e                	je     3073b3 <_doprnt+0x63>
  307395:	40 80 fe 25          	cmp    $0x25,%sil
  307399:	74 2d                	je     3073c8 <_doprnt+0x78>
  30739b:	48 8b 7d 88          	mov    -0x78(%rbp),%rdi
  30739f:	49 8d 5d 01          	lea    0x1(%r13),%rbx
  3073a3:	41 ff d4             	callq  *%r12
  3073a6:	41 0f be 75 01       	movsbl 0x1(%r13),%esi
  3073ab:	49 89 dd             	mov    %rbx,%r13
  3073ae:	40 84 f6             	test   %sil,%sil
  3073b1:	75 e2                	jne    307395 <_doprnt+0x45>
  3073b3:	48 81 c4 a8 00 00 00 	add    $0xa8,%rsp
  3073ba:	5b                   	pop    %rbx
  3073bb:	41 5c                	pop    %r12
  3073bd:	41 5d                	pop    %r13
  3073bf:	41 5e                	pop    %r14
  3073c1:	41 5f                	pop    %r15
  3073c3:	5d                   	pop    %rbp
  3073c4:	c3                   	retq   
  3073c5:	0f 1f 00             	nopl   (%rax)
  3073c8:	49 8d 55 02          	lea    0x2(%r13),%rdx
  3073cc:	31 c9                	xor    %ecx,%ecx
  3073ce:	45 31 c9             	xor    %r9d,%r9d
  3073d1:	31 ff                	xor    %edi,%edi
  3073d3:	be 20 00 00 00       	mov    $0x20,%esi
  3073d8:	eb 1d                	jmp    3073f7 <_doprnt+0xa7>
  3073da:	66 0f 1f 44 00 00    	nopw   0x0(%rax,%rax,1)
  3073e0:	3c 2d                	cmp    $0x2d,%al
  3073e2:	74 2c                	je     307410 <_doprnt+0xc0>
  3073e4:	3c 2b                	cmp    $0x2b,%al
  3073e6:	74 38                	je     307420 <_doprnt+0xd0>
  3073e8:	3c 20                	cmp    $0x20,%al
  3073ea:	75 44                	jne    307430 <_doprnt+0xe0>
  3073ec:	45 85 c9             	test   %r9d,%r9d
  3073ef:	44 0f 44 ce          	cmove  %esi,%r9d
  3073f3:	48 83 c2 01          	add    $0x1,%rdx
  3073f7:	0f b6 42 ff          	movzbl -0x1(%rdx),%eax
  3073fb:	4c 8d 72 ff          	lea    -0x1(%rdx),%r14
  3073ff:	3c 23                	cmp    $0x23,%al
  307401:	75 dd                	jne    3073e0 <_doprnt+0x90>
  307403:	b9 01 00 00 00       	mov    $0x1,%ecx
  307408:	eb e9                	jmp    3073f3 <_doprnt+0xa3>
  30740a:	66 0f 1f 44 00 00    	nopw   0x0(%rax,%rax,1)
  307410:	bf 01 00 00 00       	mov    $0x1,%edi
  307415:	eb dc                	jmp    3073f3 <_doprnt+0xa3>
  307417:	66 0f 1f 84 00 00 00 	nopw   0x0(%rax,%rax,1)
  30741e:	00 00 
  307420:	41 b9 2b 00 00 00    	mov    $0x2b,%r9d
  307426:	eb cb                	jmp    3073f3 <_doprnt+0xa3>
  307428:	0f 1f 84 00 00 00 00 	nopl   0x0(%rax,%rax,1)
  30742f:	00 
  307430:	3c 30                	cmp    $0x30,%al
  307432:	40 88 bd 70 ff ff ff 	mov    %dil,-0x90(%rbp)
  307439:	c6 45 80 20          	movb   $0x20,-0x80(%rbp)
  30743d:	0f 84 87 00 00 00    	je     3074ca <_doprnt+0x17a>
  307443:	0f b6 d0             	movzbl %al,%edx
  307446:	48 bf 20 82 34 00 00 	movabs $0x348220,%rdi
  30744d:	00 00 00 
  307450:	45 31 ed             	xor    %r13d,%r13d
  307453:	f6 04 17 04          	testb  $0x4,(%rdi,%rdx,1)
  307457:	75 47                	jne    3074a0 <_doprnt+0x150>
  307459:	3c 2a                	cmp    $0x2a,%al
  30745b:	0f 84 e4 00 00 00    	je     307545 <_doprnt+0x1f5>
  307461:	3c 2e                	cmp    $0x2e,%al
  307463:	bb ff ff ff ff       	mov    $0xffffffff,%ebx
  307468:	74 71                	je     3074db <_doprnt+0x18b>
  30746a:	3c 6c                	cmp    $0x6c,%al
  30746c:	0f 85 bb 00 00 00    	jne    30752d <_doprnt+0x1dd>
  307472:	45 31 ff             	xor    %r15d,%r15d
  307475:	0f 1f 00             	nopl   (%rax)
  307478:	49 83 c6 01          	add    $0x1,%r14
  30747c:	41 0f b6 06          	movzbl (%r14),%eax
  307480:	41 83 c7 01          	add    $0x1,%r15d
  307484:	3c 6c                	cmp    $0x6c,%al
  307486:	74 f0                	je     307478 <_doprnt+0x128>
  307488:	3c 7a                	cmp    $0x7a,%al
  30748a:	0f 87 d3 0b 00 00    	ja     308063 <_doprnt+0xd13>
  307490:	0f b6 f0             	movzbl %al,%esi
  307493:	48 bf b0 ad 34 00 00 	movabs $0x34adb0,%rdi
  30749a:	00 00 00 
  30749d:	ff 24 f7             	jmpq   *(%rdi,%rsi,8)
  3074a0:	43 8d 54 ad 00       	lea    0x0(%r13,%r13,4),%edx
  3074a5:	49 83 c6 01          	add    $0x1,%r14
  3074a9:	0f be c0             	movsbl %al,%eax
  3074ac:	48 bf 20 82 34 00 00 	movabs $0x348220,%rdi
  3074b3:	00 00 00 
  3074b6:	44 8d 6c 50 d0       	lea    -0x30(%rax,%rdx,2),%r13d
  3074bb:	41 0f b6 16          	movzbl (%r14),%edx
  3074bf:	f6 04 17 04          	testb  $0x4,(%rdi,%rdx,1)
  3074c3:	48 89 d0             	mov    %rdx,%rax
  3074c6:	75 d8                	jne    3074a0 <_doprnt+0x150>
  3074c8:	eb 97                	jmp    307461 <_doprnt+0x111>
  3074ca:	41 0f b6 46 01       	movzbl 0x1(%r14),%eax
  3074cf:	c6 45 80 30          	movb   $0x30,-0x80(%rbp)
  3074d3:	49 89 d6             	mov    %rdx,%r14
  3074d6:	e9 68 ff ff ff       	jmpq   307443 <_doprnt+0xf3>
  3074db:	41 0f b6 76 01       	movzbl 0x1(%r14),%esi
  3074e0:	48 ba 20 82 34 00 00 	movabs $0x348220,%rdx
  3074e7:	00 00 00 
  3074ea:	49 8d 7e 01          	lea    0x1(%r14),%rdi
  3074ee:	f6 04 32 04          	testb  $0x4,(%rdx,%rsi,1)
  3074f2:	48 89 f0             	mov    %rsi,%rax
  3074f5:	0f 84 7c 00 00 00    	je     307577 <_doprnt+0x227>
  3074fb:	31 db                	xor    %ebx,%ebx
  3074fd:	49 89 fe             	mov    %rdi,%r14
  307500:	8d 14 9b             	lea    (%rbx,%rbx,4),%edx
  307503:	49 83 c6 01          	add    $0x1,%r14
  307507:	0f be c0             	movsbl %al,%eax
  30750a:	48 bf 20 82 34 00 00 	movabs $0x348220,%rdi
  307511:	00 00 00 
  307514:	8d 5c 50 d0          	lea    -0x30(%rax,%rdx,2),%ebx
  307518:	41 0f b6 16          	movzbl (%r14),%edx
  30751c:	f6 04 17 04          	testb  $0x4,(%rdi,%rdx,1)
  307520:	48 89 d0             	mov    %rdx,%rax
  307523:	75 db                	jne    307500 <_doprnt+0x1b0>
  307525:	3c 6c                	cmp    $0x6c,%al
  307527:	0f 84 45 ff ff ff    	je     307472 <_doprnt+0x122>
  30752d:	3c 7a                	cmp    $0x7a,%al
  30752f:	0f 87 2e 0b 00 00    	ja     308063 <_doprnt+0xd13>
  307535:	0f b6 f0             	movzbl %al,%esi
  307538:	48 bf 88 b1 34 00 00 	movabs $0x34b188,%rdi
  30753f:	00 00 00 
  307542:	ff 24 f7             	jmpq   *(%rdi,%rsi,8)
  307545:	48 8b bd 68 ff ff ff 	mov    -0x98(%rbp),%rdi
  30754c:	8b 07                	mov    (%rdi),%eax
  30754e:	83 f8 2f             	cmp    $0x2f,%eax
  307551:	77 36                	ja     307589 <_doprnt+0x239>
  307553:	89 c2                	mov    %eax,%edx
  307555:	48 03 57 10          	add    0x10(%rdi),%rdx
  307559:	83 c0 08             	add    $0x8,%eax
  30755c:	89 07                	mov    %eax,(%rdi)
  30755e:	44 8b 2a             	mov    (%rdx),%r13d
  307561:	49 8d 56 01          	lea    0x1(%r14),%rdx
  307565:	45 85 ed             	test   %r13d,%r13d
  307568:	78 3e                	js     3075a8 <_doprnt+0x258>
  30756a:	41 0f b6 46 01       	movzbl 0x1(%r14),%eax
  30756f:	49 89 d6             	mov    %rdx,%r14
  307572:	e9 ea fe ff ff       	jmpq   307461 <_doprnt+0x111>
  307577:	40 80 fe 2a          	cmp    $0x2a,%sil
  30757b:	0f 84 6c 0b 00 00    	je     3080ed <_doprnt+0xd9d>
  307581:	49 89 fe             	mov    %rdi,%r14
  307584:	e9 e1 fe ff ff       	jmpq   30746a <_doprnt+0x11a>
  307589:	48 8b bd 68 ff ff ff 	mov    -0x98(%rbp),%rdi
  307590:	48 8b 57 08          	mov    0x8(%rdi),%rdx
  307594:	48 8d 42 08          	lea    0x8(%rdx),%rax
  307598:	48 89 47 08          	mov    %rax,0x8(%rdi)
  30759c:	44 8b 2a             	mov    (%rdx),%r13d
  30759f:	49 8d 56 01          	lea    0x1(%r14),%rdx
  3075a3:	45 85 ed             	test   %r13d,%r13d
  3075a6:	79 c2                	jns    30756a <_doprnt+0x21a>
  3075a8:	80 b5 70 ff ff ff 01 	xorb   $0x1,-0x90(%rbp)
  3075af:	41 f7 dd             	neg    %r13d
  3075b2:	eb b6                	jmp    30756a <_doprnt+0x21a>
  3075b4:	45 31 ff             	xor    %r15d,%r15d
  3075b7:	48 8b bd 68 ff ff ff 	mov    -0x98(%rbp),%rdi
  3075be:	8b 17                	mov    (%rdi),%edx
  3075c0:	83 fa 2f             	cmp    $0x2f,%edx
  3075c3:	0f 87 b6 0b 00 00    	ja     30817f <_doprnt+0xe2f>
  3075c9:	89 d0                	mov    %edx,%eax
  3075cb:	48 03 47 10          	add    0x10(%rdi),%rax
  3075cf:	83 c2 08             	add    $0x8,%edx
  3075d2:	89 17                	mov    %edx,(%rdi)
  3075d4:	45 85 ff             	test   %r15d,%r15d
  3075d7:	48 8b 38             	mov    (%rax),%rdi
  3075da:	48 89 bd 78 ff ff ff 	mov    %rdi,-0x88(%rbp)
  3075e1:	0f 84 be 0b 00 00    	je     3081a5 <_doprnt+0xe55>
  3075e7:	8b 40 04             	mov    0x4(%rax),%eax
  3075ea:	84 c9                	test   %cl,%cl
  3075ec:	89 85 58 ff ff ff    	mov    %eax,-0xa8(%rbp)
  3075f2:	0f 84 26 0f 00 00    	je     30851e <_doprnt+0x11ce>
  3075f8:	45 85 ed             	test   %r13d,%r13d
  3075fb:	0f b6 85 70 ff ff ff 	movzbl -0x90(%rbp),%eax
  307602:	0f 9f 45 80          	setg   -0x80(%rbp)
  307606:	0f b6 7d 80          	movzbl -0x80(%rbp),%edi
  30760a:	83 f0 01             	xor    $0x1,%eax
  30760d:	40 20 f8             	and    %dil,%al
  307610:	0f 84 1f 10 00 00    	je     308635 <_doprnt+0x12e5>
  307616:	4d 63 fd             	movslq %r13d,%r15
  307619:	bb 13 00 00 00       	mov    $0x13,%ebx
  30761e:	49 83 ff 13          	cmp    $0x13,%r15
  307622:	0f 8e 05 10 00 00    	jle    30862d <_doprnt+0x12dd>
  307628:	88 4d 80             	mov    %cl,-0x80(%rbp)
  30762b:	48 83 c3 01          	add    $0x1,%rbx
  30762f:	be 20 00 00 00       	mov    $0x20,%esi
  307634:	48 8b 7d 88          	mov    -0x78(%rbp),%rdi
  307638:	41 ff d4             	callq  *%r12
  30763b:	4c 39 fb             	cmp    %r15,%rbx
  30763e:	75 eb                	jne    30762b <_doprnt+0x2db>
  307640:	0f b6 4d 80          	movzbl -0x80(%rbp),%ecx
  307644:	c6 45 80 01          	movb   $0x1,-0x80(%rbp)
  307648:	84 c9                	test   %cl,%cl
  30764a:	74 19                	je     307665 <_doprnt+0x315>
  30764c:	88 8d 60 ff ff ff    	mov    %cl,-0xa0(%rbp)
  307652:	be 5b 00 00 00       	mov    $0x5b,%esi
  307657:	48 8b 7d 88          	mov    -0x78(%rbp),%rdi
  30765b:	41 ff d4             	callq  *%r12
  30765e:	0f b6 8d 60 ff ff ff 	movzbl -0xa0(%rbp),%ecx
  307665:	8b 95 78 ff ff ff    	mov    -0x88(%rbp),%edx
  30766b:	48 8d 45 90          	lea    -0x70(%rbp),%rax
  30766f:	48 bf 60 b5 34 00 00 	movabs $0x34b560,%rdi
  307676:	00 00 00 
  307679:	48 89 bd 60 ff ff ff 	mov    %rdi,-0xa0(%rbp)
  307680:	48 83 c0 07          	add    $0x7,%rax
  307684:	48 89 d6             	mov    %rdx,%rsi
  307687:	48 83 e8 01          	sub    $0x1,%rax
  30768b:	48 c1 ea 04          	shr    $0x4,%rdx
  30768f:	83 e6 0f             	and    $0xf,%esi
  307692:	0f b6 34 37          	movzbl (%rdi,%rsi,1),%esi
  307696:	40 88 70 01          	mov    %sil,0x1(%rax)
  30769a:	48 8d 75 8f          	lea    -0x71(%rbp),%rsi
  30769e:	48 39 f0             	cmp    %rsi,%rax
  3076a1:	75 e1                	jne    307684 <_doprnt+0x334>
  3076a3:	4c 8d 7d 90          	lea    -0x70(%rbp),%r15
  3076a7:	4c 89 b5 78 ff ff ff 	mov    %r14,-0x88(%rbp)
  3076ae:	44 89 ad 44 ff ff ff 	mov    %r13d,-0xbc(%rbp)
  3076b5:	4c 8b b5 48 ff ff ff 	mov    -0xb8(%rbp),%r14
  3076bc:	4c 8b 6d 88          	mov    -0x78(%rbp),%r13
  3076c0:	4c 89 f8             	mov    %r15,%rax
  3076c3:	88 8d 53 ff ff ff    	mov    %cl,-0xad(%rbp)
  3076c9:	49 89 df             	mov    %rbx,%r15
  3076cc:	48 89 c3             	mov    %rax,%rbx
  3076cf:	0f be 33             	movsbl (%rbx),%esi
  3076d2:	48 83 c3 01          	add    $0x1,%rbx
  3076d6:	4c 89 ef             	mov    %r13,%rdi
  3076d9:	41 ff d4             	callq  *%r12
  3076dc:	49 39 de             	cmp    %rbx,%r14
  3076df:	75 ee                	jne    3076cf <_doprnt+0x37f>
  3076e1:	0f b6 8d 53 ff ff ff 	movzbl -0xad(%rbp),%ecx
  3076e8:	4c 8b b5 78 ff ff ff 	mov    -0x88(%rbp),%r14
  3076ef:	be 3a 00 00 00       	mov    $0x3a,%esi
  3076f4:	48 8b 7d 88          	mov    -0x78(%rbp),%rdi
  3076f8:	44 8b ad 44 ff ff ff 	mov    -0xbc(%rbp),%r13d
  3076ff:	4c 89 fb             	mov    %r15,%rbx
  307702:	88 8d 78 ff ff ff    	mov    %cl,-0x88(%rbp)
  307708:	41 ff d4             	callq  *%r12
  30770b:	8b 95 58 ff ff ff    	mov    -0xa8(%rbp),%edx
  307711:	0f b6 8d 78 ff ff ff 	movzbl -0x88(%rbp),%ecx
  307718:	48 8d 45 90          	lea    -0x70(%rbp),%rax
  30771c:	48 8b bd 60 ff ff ff 	mov    -0xa0(%rbp),%rdi
  307723:	48 83 c0 07          	add    $0x7,%rax
  307727:	48 89 d6             	mov    %rdx,%rsi
  30772a:	48 83 e8 01          	sub    $0x1,%rax
  30772e:	48 c1 ea 04          	shr    $0x4,%rdx
  307732:	83 e6 0f             	and    $0xf,%esi
  307735:	0f b6 34 37          	movzbl (%rdi,%rsi,1),%esi
  307739:	40 88 70 01          	mov    %sil,0x1(%rax)
  30773d:	48 8d 75 8f          	lea    -0x71(%rbp),%rsi
  307741:	48 39 f0             	cmp    %rsi,%rax
  307744:	75 e1                	jne    307727 <_doprnt+0x3d7>
  307746:	4c 8d 7d 90          	lea    -0x70(%rbp),%r15
  30774a:	4c 89 b5 78 ff ff ff 	mov    %r14,-0x88(%rbp)
  307751:	4c 8b 75 88          	mov    -0x78(%rbp),%r14
  307755:	88 8d 60 ff ff ff    	mov    %cl,-0xa0(%rbp)
  30775b:	44 89 ad 58 ff ff ff 	mov    %r13d,-0xa8(%rbp)
  307762:	4c 89 f8             	mov    %r15,%rax
  307765:	4c 89 f9             	mov    %r15,%rcx
  307768:	49 89 df             	mov    %rbx,%r15
  30776b:	48 83 c0 08          	add    $0x8,%rax
  30776f:	48 89 cb             	mov    %rcx,%rbx
  307772:	49 89 c5             	mov    %rax,%r13
  307775:	0f be 33             	movsbl (%rbx),%esi
  307778:	48 83 c3 01          	add    $0x1,%rbx
  30777c:	4c 89 f7             	mov    %r14,%rdi
  30777f:	41 ff d4             	callq  *%r12
  307782:	4c 39 eb             	cmp    %r13,%rbx
  307785:	75 ee                	jne    307775 <_doprnt+0x425>
  307787:	0f b6 8d 60 ff ff ff 	movzbl -0xa0(%rbp),%ecx
  30778e:	4c 8b b5 78 ff ff ff 	mov    -0x88(%rbp),%r14
  307795:	4c 89 fb             	mov    %r15,%rbx
  307798:	4c 63 ad 58 ff ff ff 	movslq -0xa8(%rbp),%r13
  30779f:	84 c9                	test   %cl,%cl
  3077a1:	0f 85 bd 0d 00 00    	jne    308564 <_doprnt+0x1214>
  3077a7:	f6 85 70 ff ff ff 01 	testb  $0x1,-0x90(%rbp)
  3077ae:	74 28                	je     3077d8 <_doprnt+0x488>
  3077b0:	80 7d 80 00          	cmpb   $0x0,-0x80(%rbp)
  3077b4:	74 22                	je     3077d8 <_doprnt+0x488>
  3077b6:	4c 39 eb             	cmp    %r13,%rbx
  3077b9:	7d 1d                	jge    3077d8 <_doprnt+0x488>
  3077bb:	4c 8b 7d 88          	mov    -0x78(%rbp),%r15
  3077bf:	48 83 c3 01          	add    $0x1,%rbx
  3077c3:	be 20 00 00 00       	mov    $0x20,%esi
  3077c8:	4c 89 ff             	mov    %r15,%rdi
  3077cb:	41 ff d4             	callq  *%r12
  3077ce:	4c 39 eb             	cmp    %r13,%rbx
  3077d1:	75 ec                	jne    3077bf <_doprnt+0x46f>
  3077d3:	0f 1f 44 00 00       	nopl   0x0(%rax,%rax,1)
  3077d8:	41 0f be 76 01       	movsbl 0x1(%r14),%esi
  3077dd:	4d 8d 6e 01          	lea    0x1(%r14),%r13
  3077e1:	e9 aa fb ff ff       	jmpq   307390 <_doprnt+0x40>
  3077e6:	48 8b bd 68 ff ff ff 	mov    -0x98(%rbp),%rdi
  3077ed:	83 fb ff             	cmp    $0xffffffff,%ebx
  3077f0:	b8 ff ff ff 7f       	mov    $0x7fffffff,%eax
  3077f5:	0f 44 d8             	cmove  %eax,%ebx
  3077f8:	8b 0f                	mov    (%rdi),%ecx
  3077fa:	83 f9 2f             	cmp    $0x2f,%ecx
  3077fd:	0f 87 64 09 00 00    	ja     308167 <_doprnt+0xe17>
  307803:	89 c8                	mov    %ecx,%eax
  307805:	48 03 47 10          	add    0x10(%rdi),%rax
  307809:	83 c1 08             	add    $0x8,%ecx
  30780c:	89 0f                	mov    %ecx,(%rdi)
  30780e:	4c 8b 38             	mov    (%rax),%r15
  307811:	48 b8 b5 2b 35 00 00 	movabs $0x352bb5,%rax
  307818:	00 00 00 
  30781b:	4d 85 ff             	test   %r15,%r15
  30781e:	4c 0f 44 f8          	cmove  %rax,%r15
  307822:	45 85 ed             	test   %r13d,%r13d
  307825:	0f 8e c6 0c 00 00    	jle    3084f1 <_doprnt+0x11a1>
  30782b:	f6 85 70 ff ff ff 01 	testb  $0x1,-0x90(%rbp)
  307832:	0f 85 b9 0c 00 00    	jne    3084f1 <_doprnt+0x11a1>
  307838:	41 0f be 37          	movsbl (%r15),%esi
  30783c:	40 84 f6             	test   %sil,%sil
  30783f:	0f 84 1d 0e 00 00    	je     308662 <_doprnt+0x1312>
  307845:	48 63 cb             	movslq %ebx,%rcx
  307848:	31 c0                	xor    %eax,%eax
  30784a:	48 85 c9             	test   %rcx,%rcx
  30784d:	7f 0e                	jg     30785d <_doprnt+0x50d>
  30784f:	e9 eb 0d 00 00       	jmpq   30863f <_doprnt+0x12ef>
  307854:	0f 1f 40 00          	nopl   0x0(%rax)
  307858:	48 39 c8             	cmp    %rcx,%rax
  30785b:	74 0b                	je     307868 <_doprnt+0x518>
  30785d:	48 83 c0 01          	add    $0x1,%rax
  307861:	41 80 3c 07 00       	cmpb   $0x0,(%r15,%rax,1)
  307866:	75 f0                	jne    307858 <_doprnt+0x508>
  307868:	49 63 fd             	movslq %r13d,%rdi
  30786b:	48 39 c7             	cmp    %rax,%rdi
  30786e:	48 89 7d 80          	mov    %rdi,-0x80(%rbp)
  307872:	0f 8e ad 0d 00 00    	jle    308625 <_doprnt+0x12d5>
  307878:	89 9d 60 ff ff ff    	mov    %ebx,-0xa0(%rbp)
  30787e:	4c 8b 6d 88          	mov    -0x78(%rbp),%r13
  307882:	48 8b 5d 80          	mov    -0x80(%rbp),%rbx
  307886:	4c 89 b5 78 ff ff ff 	mov    %r14,-0x88(%rbp)
  30788d:	49 89 c6             	mov    %rax,%r14
  307890:	49 83 c6 01          	add    $0x1,%r14
  307894:	be 20 00 00 00       	mov    $0x20,%esi
  307899:	4c 89 ef             	mov    %r13,%rdi
  30789c:	41 ff d4             	callq  *%r12
  30789f:	49 39 de             	cmp    %rbx,%r14
  3078a2:	7c ec                	jl     307890 <_doprnt+0x540>
  3078a4:	4c 8b b5 78 ff ff ff 	mov    -0x88(%rbp),%r14
  3078ab:	8b 9d 60 ff ff ff    	mov    -0xa0(%rbp),%ebx
  3078b1:	41 0f be 37          	movsbl (%r15),%esi
  3078b5:	40 84 f6             	test   %sil,%sil
  3078b8:	0f 84 54 0d 00 00    	je     308612 <_doprnt+0x12c2>
  3078be:	48 63 db             	movslq %ebx,%rbx
  3078c1:	48 85 db             	test   %rbx,%rbx
  3078c4:	0f 8e 50 0d 00 00    	jle    30861a <_doprnt+0x12ca>
  3078ca:	41 bd 01 00 00 00    	mov    $0x1,%r13d
  3078d0:	4c 89 b5 78 ff ff ff 	mov    %r14,-0x88(%rbp)
  3078d7:	4d 89 ee             	mov    %r13,%r14
  3078da:	49 89 dd             	mov    %rbx,%r13
  3078dd:	48 8b 5d 88          	mov    -0x78(%rbp),%rbx
  3078e1:	eb 0e                	jmp    3078f1 <_doprnt+0x5a1>
  3078e3:	0f 1f 44 00 00       	nopl   0x0(%rax,%rax,1)
  3078e8:	49 83 c6 01          	add    $0x1,%r14
  3078ec:	4d 39 ee             	cmp    %r13,%r14
  3078ef:	7f 10                	jg     307901 <_doprnt+0x5b1>
  3078f1:	48 89 df             	mov    %rbx,%rdi
  3078f4:	41 ff d4             	callq  *%r12
  3078f7:	43 0f be 34 37       	movsbl (%r15,%r14,1),%esi
  3078fc:	40 84 f6             	test   %sil,%sil
  3078ff:	75 e7                	jne    3078e8 <_doprnt+0x598>
  307901:	4d 89 f5             	mov    %r14,%r13
  307904:	4c 8b b5 78 ff ff ff 	mov    -0x88(%rbp),%r14
  30790b:	4c 39 6d 80          	cmp    %r13,-0x80(%rbp)
  30790f:	0f 8e c3 fe ff ff    	jle    3077d8 <_doprnt+0x488>
  307915:	f6 85 70 ff ff ff 01 	testb  $0x1,-0x90(%rbp)
  30791c:	0f 84 b6 fe ff ff    	je     3077d8 <_doprnt+0x488>
  307922:	48 8b 5d 80          	mov    -0x80(%rbp),%rbx
  307926:	4c 8b 7d 88          	mov    -0x78(%rbp),%r15
  30792a:	49 83 c5 01          	add    $0x1,%r13
  30792e:	be 20 00 00 00       	mov    $0x20,%esi
  307933:	4c 89 ff             	mov    %r15,%rdi
  307936:	41 ff d4             	callq  *%r12
  307939:	49 39 dd             	cmp    %rbx,%r13
  30793c:	75 ec                	jne    30792a <_doprnt+0x5da>
  30793e:	e9 95 fe ff ff       	jmpq   3077d8 <_doprnt+0x488>
  307943:	48 b8 08 a0 35 00 00 	movabs $0x35a008,%rax
  30794a:	00 00 00 
  30794d:	8b b5 54 ff ff ff    	mov    -0xac(%rbp),%esi
  307953:	40 8a 38             	mov    (%rax),%dil
  307956:	48 8b 9d 68 ff ff ff 	mov    -0x98(%rbp),%rbx
  30795d:	8b 03                	mov    (%rbx),%eax
  30795f:	83 f8 2f             	cmp    $0x2f,%eax
  307962:	0f 87 18 03 00 00    	ja     307c80 <_doprnt+0x930>
  307968:	89 c2                	mov    %eax,%edx
  30796a:	48 03 53 10          	add    0x10(%rbx),%rdx
  30796e:	83 c0 08             	add    $0x8,%eax
  307971:	89 03                	mov    %eax,(%rbx)
  307973:	48 8b 02             	mov    (%rdx),%rax
  307976:	48 85 c0             	test   %rax,%rax
  307979:	0f 88 20 03 00 00    	js     307c9f <_doprnt+0x94f>
  30797f:	80 7d 80 20          	cmpb   $0x20,-0x80(%rbp)
  307983:	44 0f b6 95 70 ff ff 	movzbl -0x90(%rbp),%r10d
  30798a:	ff 
  30798b:	45 89 e8             	mov    %r13d,%r8d
  30798e:	0f 94 c2             	sete   %dl
  307991:	41 83 f2 01          	xor    $0x1,%r10d
  307995:	41 21 d2             	and    %edx,%r10d
  307998:	40 84 ff             	test   %dil,%dil
  30799b:	48 63 d0             	movslq %eax,%rdx
  30799e:	48 0f 45 c2          	cmovne %rdx,%rax
  3079a2:	85 f6                	test   %esi,%esi
  3079a4:	0f 84 57 02 00 00    	je     307c01 <_doprnt+0x8b1>
  3079aa:	48 85 c0             	test   %rax,%rax
  3079ad:	0f 84 2f 07 00 00    	je     3080e2 <_doprnt+0xd92>
  3079b3:	84 c9                	test   %cl,%cl
  3079b5:	0f 84 27 07 00 00    	je     3080e2 <_doprnt+0xd92>
  3079bb:	83 fe 08             	cmp    $0x8,%esi
  3079be:	bf 08 00 00 00       	mov    $0x8,%edi
  3079c3:	49 bf 4f 29 35 00 00 	movabs $0x35294f,%r15
  3079ca:	00 00 00 
  3079cd:	0f 85 f7 06 00 00    	jne    3080ca <_doprnt+0xd7a>
  3079d3:	0f 1f 44 00 00       	nopl   0x0(%rax,%rax,1)
  3079d8:	48 8d 4d 90          	lea    -0x70(%rbp),%rcx
  3079dc:	49 bb 60 b5 34 00 00 	movabs $0x34b560,%r11
  3079e3:	00 00 00 
  3079e6:	48 8d 59 3f          	lea    0x3f(%rcx),%rbx
  3079ea:	eb 07                	jmp    3079f3 <_doprnt+0x6a3>
  3079ec:	0f 1f 40 00          	nopl   0x0(%rax)
  3079f0:	48 89 f3             	mov    %rsi,%rbx
  3079f3:	31 d2                	xor    %edx,%edx
  3079f5:	48 8d 73 ff          	lea    -0x1(%rbx),%rsi
  3079f9:	48 f7 f7             	div    %rdi
  3079fc:	45 0f b6 2c 13       	movzbl (%r11,%rdx,1),%r13d
  307a01:	48 85 c0             	test   %rax,%rax
  307a04:	44 88 6e 01          	mov    %r13b,0x1(%rsi)
  307a08:	75 e6                	jne    3079f0 <_doprnt+0x6a0>
  307a0a:	48 8d 45 90          	lea    -0x70(%rbp),%rax
  307a0e:	48 83 c0 3f          	add    $0x3f,%rax
  307a12:	48 29 f0             	sub    %rsi,%rax
  307a15:	41 29 c0             	sub    %eax,%r8d
  307a18:	41 83 f9 01          	cmp    $0x1,%r9d
  307a1c:	41 83 d0 ff          	adc    $0xffffffff,%r8d
  307a20:	4d 85 ff             	test   %r15,%r15
  307a23:	44 89 85 78 ff ff ff 	mov    %r8d,-0x88(%rbp)
  307a2a:	74 32                	je     307a5e <_doprnt+0x70e>
  307a2c:	44 88 95 58 ff ff ff 	mov    %r10b,-0xa8(%rbp)
  307a33:	44 89 8d 60 ff ff ff 	mov    %r9d,-0xa0(%rbp)
  307a3a:	4c 89 ff             	mov    %r15,%rdi
  307a3d:	48 b8 a0 c9 30 00 00 	movabs $0x30c9a0,%rax
  307a44:	00 00 00 
  307a47:	ff d0                	callq  *%rax
  307a49:	44 0f b6 95 58 ff ff 	movzbl -0xa8(%rbp),%r10d
  307a50:	ff 
  307a51:	29 85 78 ff ff ff    	sub    %eax,-0x88(%rbp)
  307a57:	44 8b 8d 60 ff ff ff 	mov    -0xa0(%rbp),%r9d
  307a5e:	45 84 d2             	test   %r10b,%r10b
  307a61:	74 5d                	je     307ac0 <_doprnt+0x770>
  307a63:	8b 85 78 ff ff ff    	mov    -0x88(%rbp),%eax
  307a69:	83 e8 01             	sub    $0x1,%eax
  307a6c:	0f 88 60 0a 00 00    	js     3084d2 <_doprnt+0x1182>
  307a72:	4c 89 b5 78 ff ff ff 	mov    %r14,-0x88(%rbp)
  307a79:	4c 8b 75 88          	mov    -0x78(%rbp),%r14
  307a7d:	48 89 9d 58 ff ff ff 	mov    %rbx,-0xa8(%rbp)
  307a84:	44 89 8d 60 ff ff ff 	mov    %r9d,-0xa0(%rbp)
  307a8b:	89 c3                	mov    %eax,%ebx
  307a8d:	0f 1f 00             	nopl   (%rax)
  307a90:	83 eb 01             	sub    $0x1,%ebx
  307a93:	be 20 00 00 00       	mov    $0x20,%esi
  307a98:	4c 89 f7             	mov    %r14,%rdi
  307a9b:	41 ff d4             	callq  *%r12
  307a9e:	83 fb ff             	cmp    $0xffffffff,%ebx
  307aa1:	75 ed                	jne    307a90 <_doprnt+0x740>
  307aa3:	89 d8                	mov    %ebx,%eax
  307aa5:	44 8b 8d 60 ff ff ff 	mov    -0xa0(%rbp),%r9d
  307aac:	48 8b 9d 58 ff ff ff 	mov    -0xa8(%rbp),%rbx
  307ab3:	4c 8b b5 78 ff ff ff 	mov    -0x88(%rbp),%r14
  307aba:	89 85 78 ff ff ff    	mov    %eax,-0x88(%rbp)
  307ac0:	45 85 c9             	test   %r9d,%r9d
  307ac3:	0f 85 a9 05 00 00    	jne    308072 <_doprnt+0xd22>
  307ac9:	4d 85 ff             	test   %r15,%r15
  307acc:	74 33                	je     307b01 <_doprnt+0x7b1>
  307ace:	41 0f be 37          	movsbl (%r15),%esi
  307ad2:	40 84 f6             	test   %sil,%sil
  307ad5:	74 2a                	je     307b01 <_doprnt+0x7b1>
  307ad7:	48 89 9d 60 ff ff ff 	mov    %rbx,-0xa0(%rbp)
  307ade:	4c 89 fb             	mov    %r15,%rbx
  307ae1:	4c 8b 7d 88          	mov    -0x78(%rbp),%r15
  307ae5:	0f 1f 00             	nopl   (%rax)
  307ae8:	48 83 c3 01          	add    $0x1,%rbx
  307aec:	4c 89 ff             	mov    %r15,%rdi
  307aef:	41 ff d4             	callq  *%r12
  307af2:	0f be 33             	movsbl (%rbx),%esi
  307af5:	40 84 f6             	test   %sil,%sil
  307af8:	75 ee                	jne    307ae8 <_doprnt+0x798>
  307afa:	48 8b 9d 60 ff ff ff 	mov    -0xa0(%rbp),%rbx
  307b01:	80 7d 80 30          	cmpb   $0x30,-0x80(%rbp)
  307b05:	0f 84 76 05 00 00    	je     308081 <_doprnt+0xd31>
  307b0b:	48 8d 45 d0          	lea    -0x30(%rbp),%rax
  307b0f:	48 39 c3             	cmp    %rax,%rbx
  307b12:	74 30                	je     307b44 <_doprnt+0x7f4>
  307b14:	48 83 c3 01          	add    $0x1,%rbx
  307b18:	41 0f be f5          	movsbl %r13b,%esi
  307b1c:	49 89 c7             	mov    %rax,%r15
  307b1f:	49 89 dd             	mov    %rbx,%r13
  307b22:	48 8b 5d 88          	mov    -0x78(%rbp),%rbx
  307b26:	eb 11                	jmp    307b39 <_doprnt+0x7e9>
  307b28:	0f 1f 84 00 00 00 00 	nopl   0x0(%rax,%rax,1)
  307b2f:	00 
  307b30:	41 0f be 75 00       	movsbl 0x0(%r13),%esi
  307b35:	49 83 c5 01          	add    $0x1,%r13
  307b39:	48 89 df             	mov    %rbx,%rdi
  307b3c:	41 ff d4             	callq  *%r12
  307b3f:	4d 39 fd             	cmp    %r15,%r13
  307b42:	75 ec                	jne    307b30 <_doprnt+0x7e0>
  307b44:	80 bd 70 ff ff ff 00 	cmpb   $0x0,-0x90(%rbp)
  307b4b:	0f 84 87 fc ff ff    	je     3077d8 <_doprnt+0x488>
  307b51:	44 8b ad 78 ff ff ff 	mov    -0x88(%rbp),%r13d
  307b58:	41 83 ed 01          	sub    $0x1,%r13d
  307b5c:	0f 88 76 fc ff ff    	js     3077d8 <_doprnt+0x488>
  307b62:	48 8b 5d 88          	mov    -0x78(%rbp),%rbx
  307b66:	66 2e 0f 1f 84 00 00 	nopw   %cs:0x0(%rax,%rax,1)
  307b6d:	00 00 00 
  307b70:	41 83 ed 01          	sub    $0x1,%r13d
  307b74:	be 20 00 00 00       	mov    $0x20,%esi
  307b79:	48 89 df             	mov    %rbx,%rdi
  307b7c:	41 ff d4             	callq  *%r12
  307b7f:	41 83 fd ff          	cmp    $0xffffffff,%r13d
  307b83:	75 eb                	jne    307b70 <_doprnt+0x820>
  307b85:	e9 4e fc ff ff       	jmpq   3077d8 <_doprnt+0x488>
  307b8a:	48 8b 5d 88          	mov    -0x78(%rbp),%rbx
  307b8e:	88 8d 78 ff ff ff    	mov    %cl,-0x88(%rbp)
  307b94:	be 30 00 00 00       	mov    $0x30,%esi
  307b99:	48 89 df             	mov    %rbx,%rdi
  307b9c:	41 ff d4             	callq  *%r12
  307b9f:	be 78 00 00 00       	mov    $0x78,%esi
  307ba4:	48 89 df             	mov    %rbx,%rdi
  307ba7:	41 ff d4             	callq  *%r12
  307baa:	0f b6 8d 78 ff ff ff 	movzbl -0x88(%rbp),%ecx
  307bb1:	45 31 d2             	xor    %r10d,%r10d
  307bb4:	41 b8 08 00 00 00    	mov    $0x8,%r8d
  307bba:	c6 45 80 30          	movb   $0x30,-0x80(%rbp)
  307bbe:	48 b8 08 a0 35 00 00 	movabs $0x35a008,%rax
  307bc5:	00 00 00 
  307bc8:	40 8a 38             	mov    (%rax),%dil
  307bcb:	be 10 00 00 00       	mov    $0x10,%esi
  307bd0:	48 8b 9d 68 ff ff ff 	mov    -0x98(%rbp),%rbx
  307bd7:	8b 03                	mov    (%rbx),%eax
  307bd9:	83 f8 2f             	cmp    $0x2f,%eax
  307bdc:	77 69                	ja     307c47 <_doprnt+0x8f7>
  307bde:	89 c2                	mov    %eax,%edx
  307be0:	48 03 53 10          	add    0x10(%rbx),%rdx
  307be4:	83 c0 08             	add    $0x8,%eax
  307be7:	89 03                	mov    %eax,(%rbx)
  307be9:	48 8b 02             	mov    (%rdx),%rax
  307bec:	45 31 c9             	xor    %r9d,%r9d
  307bef:	40 84 ff             	test   %dil,%dil
  307bf2:	48 63 d0             	movslq %eax,%rdx
  307bf5:	48 0f 45 c2          	cmovne %rdx,%rax
  307bf9:	85 f6                	test   %esi,%esi
  307bfb:	0f 85 a9 fd ff ff    	jne    3079aa <_doprnt+0x65a>
  307c01:	bf 0a 00 00 00       	mov    $0xa,%edi
  307c06:	45 31 ff             	xor    %r15d,%r15d
  307c09:	e9 ca fd ff ff       	jmpq   3079d8 <_doprnt+0x688>
  307c0e:	80 7d 80 20          	cmpb   $0x20,-0x80(%rbp)
  307c12:	44 0f b6 95 70 ff ff 	movzbl -0x90(%rbp),%r10d
  307c19:	ff 
  307c1a:	48 b8 08 a0 35 00 00 	movabs $0x35a008,%rax
  307c21:	00 00 00 
  307c24:	48 8b 9d 68 ff ff ff 	mov    -0x98(%rbp),%rbx
  307c2b:	40 8a 38             	mov    (%rax),%dil
  307c2e:	45 89 e8             	mov    %r13d,%r8d
  307c31:	be 0a 00 00 00       	mov    $0xa,%esi
  307c36:	0f 94 c0             	sete   %al
  307c39:	41 83 f2 01          	xor    $0x1,%r10d
  307c3d:	41 21 c2             	and    %eax,%r10d
  307c40:	8b 03                	mov    (%rbx),%eax
  307c42:	83 f8 2f             	cmp    $0x2f,%eax
  307c45:	76 97                	jbe    307bde <_doprnt+0x88e>
  307c47:	48 8b 9d 68 ff ff ff 	mov    -0x98(%rbp),%rbx
  307c4e:	48 8b 53 08          	mov    0x8(%rbx),%rdx
  307c52:	48 8d 42 08          	lea    0x8(%rdx),%rax
  307c56:	48 89 43 08          	mov    %rax,0x8(%rbx)
  307c5a:	eb 8d                	jmp    307be9 <_doprnt+0x899>
  307c5c:	48 8b 9d 68 ff ff ff 	mov    -0x98(%rbp),%rbx
  307c63:	48 b8 08 a0 35 00 00 	movabs $0x35a008,%rax
  307c6a:	00 00 00 
  307c6d:	40 8a 38             	mov    (%rax),%dil
  307c70:	be 10 00 00 00       	mov    $0x10,%esi
  307c75:	8b 03                	mov    (%rbx),%eax
  307c77:	83 f8 2f             	cmp    $0x2f,%eax
  307c7a:	0f 86 e8 fc ff ff    	jbe    307968 <_doprnt+0x618>
  307c80:	48 8b 9d 68 ff ff ff 	mov    -0x98(%rbp),%rbx
  307c87:	48 8b 53 08          	mov    0x8(%rbx),%rdx
  307c8b:	48 8d 42 08          	lea    0x8(%rdx),%rax
  307c8f:	48 89 43 08          	mov    %rax,0x8(%rbx)
  307c93:	48 8b 02             	mov    (%rdx),%rax
  307c96:	48 85 c0             	test   %rax,%rax
  307c99:	0f 89 e0 fc ff ff    	jns    30797f <_doprnt+0x62f>
  307c9f:	48 f7 d8             	neg    %rax
  307ca2:	44 0f b6 95 70 ff ff 	movzbl -0x90(%rbp),%r10d
  307ca9:	ff 
  307caa:	80 7d 80 20          	cmpb   $0x20,-0x80(%rbp)
  307cae:	45 89 e8             	mov    %r13d,%r8d
  307cb1:	41 b9 2d 00 00 00    	mov    $0x2d,%r9d
  307cb7:	0f 94 c2             	sete   %dl
  307cba:	41 83 f2 01          	xor    $0x1,%r10d
  307cbe:	41 21 d2             	and    %edx,%r10d
  307cc1:	e9 d2 fc ff ff       	jmpq   307998 <_doprnt+0x648>
  307cc6:	80 7d 80 20          	cmpb   $0x20,-0x80(%rbp)
  307cca:	44 0f b6 95 70 ff ff 	movzbl -0x90(%rbp),%r10d
  307cd1:	ff 
  307cd2:	48 b8 08 a0 35 00 00 	movabs $0x35a008,%rax
  307cd9:	00 00 00 
  307cdc:	40 8a 38             	mov    (%rax),%dil
  307cdf:	45 89 e8             	mov    %r13d,%r8d
  307ce2:	be 08 00 00 00       	mov    $0x8,%esi
  307ce7:	0f 94 c0             	sete   %al
  307cea:	41 83 f2 01          	xor    $0x1,%r10d
  307cee:	41 21 c2             	and    %eax,%r10d
  307cf1:	e9 da fe ff ff       	jmpq   307bd0 <_doprnt+0x880>
  307cf6:	80 7d 80 20          	cmpb   $0x20,-0x80(%rbp)
  307cfa:	44 0f b6 95 70 ff ff 	movzbl -0x90(%rbp),%r10d
  307d01:	ff 
  307d02:	48 b8 08 a0 35 00 00 	movabs $0x35a008,%rax
  307d09:	00 00 00 
  307d0c:	40 8a 38             	mov    (%rax),%dil
  307d0f:	45 89 e8             	mov    %r13d,%r8d
  307d12:	8b b5 54 ff ff ff    	mov    -0xac(%rbp),%esi
  307d18:	0f 94 c0             	sete   %al
  307d1b:	41 83 f2 01          	xor    $0x1,%r10d
  307d1f:	41 21 c2             	and    %eax,%r10d
  307d22:	e9 a9 fe ff ff       	jmpq   307bd0 <_doprnt+0x880>
  307d27:	48 b8 08 a0 35 00 00 	movabs $0x35a008,%rax
  307d2e:	00 00 00 
  307d31:	be 0a 00 00 00       	mov    $0xa,%esi
  307d36:	40 8a 38             	mov    (%rax),%dil
  307d39:	e9 18 fc ff ff       	jmpq   307956 <_doprnt+0x606>
  307d3e:	48 8b 8d 68 ff ff ff 	mov    -0x98(%rbp),%rcx
  307d45:	8b 11                	mov    (%rcx),%edx
  307d47:	83 fa 2f             	cmp    $0x2f,%edx
  307d4a:	0f 87 ff 03 00 00    	ja     30814f <_doprnt+0xdff>
  307d50:	89 d0                	mov    %edx,%eax
  307d52:	48 03 41 10          	add    0x10(%rcx),%rax
  307d56:	83 c2 08             	add    $0x8,%edx
  307d59:	89 11                	mov    %edx,(%rcx)
  307d5b:	0f be 30             	movsbl (%rax),%esi
  307d5e:	48 8b 7d 88          	mov    -0x78(%rbp),%rdi
  307d62:	41 ff d4             	callq  *%r12
  307d65:	41 0f be 76 01       	movsbl 0x1(%r14),%esi
  307d6a:	e9 6e fa ff ff       	jmpq   3077dd <_doprnt+0x48d>
  307d6f:	be 10 00 00 00       	mov    $0x10,%esi
  307d74:	31 ff                	xor    %edi,%edi
  307d76:	e9 db fb ff ff       	jmpq   307956 <_doprnt+0x606>
  307d7b:	80 7d 80 20          	cmpb   $0x20,-0x80(%rbp)
  307d7f:	44 0f b6 95 70 ff ff 	movzbl -0x90(%rbp),%r10d
  307d86:	ff 
  307d87:	45 89 e8             	mov    %r13d,%r8d
  307d8a:	be 10 00 00 00       	mov    $0x10,%esi
  307d8f:	0f 94 c0             	sete   %al
  307d92:	41 83 f2 01          	xor    $0x1,%r10d
  307d96:	31 ff                	xor    %edi,%edi
  307d98:	41 21 c2             	and    %eax,%r10d
  307d9b:	e9 30 fe ff ff       	jmpq   307bd0 <_doprnt+0x880>
  307da0:	80 7d 80 20          	cmpb   $0x20,-0x80(%rbp)
  307da4:	44 0f b6 95 70 ff ff 	movzbl -0x90(%rbp),%r10d
  307dab:	ff 
  307dac:	45 89 e8             	mov    %r13d,%r8d
  307daf:	be 0a 00 00 00       	mov    $0xa,%esi
  307db4:	0f 94 c0             	sete   %al
  307db7:	41 83 f2 01          	xor    $0x1,%r10d
  307dbb:	31 ff                	xor    %edi,%edi
  307dbd:	41 21 c2             	and    %eax,%r10d
  307dc0:	e9 0b fe ff ff       	jmpq   307bd0 <_doprnt+0x880>
  307dc5:	8b b5 54 ff ff ff    	mov    -0xac(%rbp),%esi
  307dcb:	31 ff                	xor    %edi,%edi
  307dcd:	e9 84 fb ff ff       	jmpq   307956 <_doprnt+0x606>
  307dd2:	80 7d 80 20          	cmpb   $0x20,-0x80(%rbp)
  307dd6:	44 0f b6 95 70 ff ff 	movzbl -0x90(%rbp),%r10d
  307ddd:	ff 
  307dde:	45 89 e8             	mov    %r13d,%r8d
  307de1:	be 08 00 00 00       	mov    $0x8,%esi
  307de6:	0f 94 c0             	sete   %al
  307de9:	41 83 f2 01          	xor    $0x1,%r10d
  307ded:	31 ff                	xor    %edi,%edi
  307def:	41 21 c2             	and    %eax,%r10d
  307df2:	e9 d9 fd ff ff       	jmpq   307bd0 <_doprnt+0x880>
  307df7:	80 7d 80 20          	cmpb   $0x20,-0x80(%rbp)
  307dfb:	44 0f b6 95 70 ff ff 	movzbl -0x90(%rbp),%r10d
  307e02:	ff 
  307e03:	45 89 e8             	mov    %r13d,%r8d
  307e06:	8b b5 54 ff ff ff    	mov    -0xac(%rbp),%esi
  307e0c:	0f 94 c0             	sete   %al
  307e0f:	41 83 f2 01          	xor    $0x1,%r10d
  307e13:	31 ff                	xor    %edi,%edi
  307e15:	41 21 c2             	and    %eax,%r10d
  307e18:	e9 b3 fd ff ff       	jmpq   307bd0 <_doprnt+0x880>
  307e1d:	be 0a 00 00 00       	mov    $0xa,%esi
  307e22:	31 ff                	xor    %edi,%edi
  307e24:	e9 2d fb ff ff       	jmpq   307956 <_doprnt+0x606>
  307e29:	48 8b bd 68 ff ff ff 	mov    -0x98(%rbp),%rdi
  307e30:	8b 0f                	mov    (%rdi),%ecx
  307e32:	83 f9 2f             	cmp    $0x2f,%ecx
  307e35:	0f 87 e6 02 00 00    	ja     308121 <_doprnt+0xdd1>
  307e3b:	48 8b 47 10          	mov    0x10(%rdi),%rax
  307e3f:	8d 51 08             	lea    0x8(%rcx),%edx
  307e42:	89 ce                	mov    %ecx,%esi
  307e44:	89 17                	mov    %edx,(%rdi)
  307e46:	83 fa 2f             	cmp    $0x2f,%edx
  307e49:	48 8b 3c 30          	mov    (%rax,%rsi,1),%rdi
  307e4d:	48 89 7d 80          	mov    %rdi,-0x80(%rbp)
  307e51:	0f 87 19 08 00 00    	ja     308670 <_doprnt+0x1320>
  307e57:	48 8b bd 68 ff ff ff 	mov    -0x98(%rbp),%rdi
  307e5e:	83 c1 10             	add    $0x10,%ecx
  307e61:	48 01 d0             	add    %rdx,%rax
  307e64:	89 0f                	mov    %ecx,(%rdi)
  307e66:	4c 8b 28             	mov    (%rax),%r13
  307e69:	48 8d 4d 90          	lea    -0x70(%rbp),%rcx
  307e6d:	4c 8d 79 3f          	lea    0x3f(%rcx),%r15
  307e71:	48 b9 60 b5 34 00 00 	movabs $0x34b560,%rcx
  307e78:	00 00 00 
  307e7b:	49 0f be 45 00       	movsbq 0x0(%r13),%rax
  307e80:	48 89 8d 60 ff ff ff 	mov    %rcx,-0xa0(%rbp)
  307e87:	49 89 c8             	mov    %rcx,%r8
  307e8a:	48 89 c7             	mov    %rax,%rdi
  307e8d:	48 89 85 70 ff ff ff 	mov    %rax,-0x90(%rbp)
  307e94:	48 8b 45 80          	mov    -0x80(%rbp),%rax
  307e98:	eb 09                	jmp    307ea3 <_doprnt+0xb53>
  307e9a:	66 0f 1f 44 00 00    	nopw   0x0(%rax,%rax,1)
  307ea0:	49 89 cf             	mov    %rcx,%r15
  307ea3:	31 d2                	xor    %edx,%edx
  307ea5:	49 8d 4f ff          	lea    -0x1(%r15),%rcx
  307ea9:	48 f7 f7             	div    %rdi
  307eac:	41 0f be 34 10       	movsbl (%r8,%rdx,1),%esi
  307eb1:	48 85 c0             	test   %rax,%rax
  307eb4:	40 88 71 01          	mov    %sil,0x1(%rcx)
  307eb8:	75 e6                	jne    307ea0 <_doprnt+0xb50>
  307eba:	48 8d 45 d0          	lea    -0x30(%rbp),%rax
  307ebe:	49 39 c7             	cmp    %rax,%r15
  307ec1:	74 3a                	je     307efd <_doprnt+0xbad>
  307ec3:	49 83 c7 01          	add    $0x1,%r15
  307ec7:	4c 89 b5 78 ff ff ff 	mov    %r14,-0x88(%rbp)
  307ece:	48 89 c3             	mov    %rax,%rbx
  307ed1:	4d 89 fe             	mov    %r15,%r14
  307ed4:	4d 89 ef             	mov    %r13,%r15
  307ed7:	4c 8b 6d 88          	mov    -0x78(%rbp),%r13
  307edb:	eb 0b                	jmp    307ee8 <_doprnt+0xb98>
  307edd:	0f 1f 00             	nopl   (%rax)
  307ee0:	41 0f be 36          	movsbl (%r14),%esi
  307ee4:	49 83 c6 01          	add    $0x1,%r14
  307ee8:	4c 89 ef             	mov    %r13,%rdi
  307eeb:	41 ff d4             	callq  *%r12
  307eee:	49 39 de             	cmp    %rbx,%r14
  307ef1:	75 ed                	jne    307ee0 <_doprnt+0xb90>
  307ef3:	4c 8b b5 78 ff ff ff 	mov    -0x88(%rbp),%r14
  307efa:	4d 89 fd             	mov    %r15,%r13
  307efd:	48 83 7d 80 00       	cmpq   $0x0,-0x80(%rbp)
  307f02:	0f 84 d0 f8 ff ff    	je     3077d8 <_doprnt+0x488>
  307f08:	41 0f b6 75 01       	movzbl 0x1(%r13),%esi
  307f0d:	4c 89 b5 58 ff ff ff 	mov    %r14,-0xa8(%rbp)
  307f14:	49 8d 5d 01          	lea    0x1(%r13),%rbx
  307f18:	4c 8b 75 88          	mov    -0x78(%rbp),%r14
  307f1c:	4c 8b bd 60 ff ff ff 	mov    -0xa0(%rbp),%r15
  307f23:	31 d2                	xor    %edx,%edx
  307f25:	44 0f be ee          	movsbl %sil,%r13d
  307f29:	45 85 ed             	test   %r13d,%r13d
  307f2c:	0f 84 e3 00 00 00    	je     308015 <_doprnt+0xcc5>
  307f32:	80 7b 01 20          	cmpb   $0x20,0x1(%rbx)
  307f36:	0f 8f 13 05 00 00    	jg     30844f <_doprnt+0x10ff>
  307f3c:	84 d2                	test   %dl,%dl
  307f3e:	0f 84 7e 05 00 00    	je     3084c2 <_doprnt+0x1172>
  307f44:	be 2c 00 00 00       	mov    $0x2c,%esi
  307f49:	4c 89 f7             	mov    %r14,%rdi
  307f4c:	41 ff d4             	callq  *%r12
  307f4f:	0f be 73 02          	movsbl 0x2(%rbx),%esi
  307f53:	0f be 4b 01          	movsbl 0x1(%rbx),%ecx
  307f57:	48 8d 43 02          	lea    0x2(%rbx),%rax
  307f5b:	48 89 c3             	mov    %rax,%rbx
  307f5e:	40 80 fe 20          	cmp    $0x20,%sil
  307f62:	89 8d 78 ff ff ff    	mov    %ecx,-0x88(%rbp)
  307f68:	7e 19                	jle    307f83 <_doprnt+0xc33>
  307f6a:	66 0f 1f 44 00 00    	nopw   0x0(%rax,%rax,1)
  307f70:	48 83 c3 01          	add    $0x1,%rbx
  307f74:	4c 89 f7             	mov    %r14,%rdi
  307f77:	41 ff d4             	callq  *%r12
  307f7a:	0f be 33             	movsbl (%rbx),%esi
  307f7d:	40 80 fe 20          	cmp    $0x20,%sil
  307f81:	7f ed                	jg     307f70 <_doprnt+0xc20>
  307f83:	8b bd 78 ff ff ff    	mov    -0x88(%rbp),%edi
  307f89:	44 89 e9             	mov    %r13d,%ecx
  307f8c:	b8 02 00 00 00       	mov    $0x2,%eax
  307f91:	4c 8b 85 70 ff ff ff 	mov    -0x90(%rbp),%r8
  307f98:	29 f9                	sub    %edi,%ecx
  307f9a:	d3 e0                	shl    %cl,%eax
  307f9c:	8d 4f ff             	lea    -0x1(%rdi),%ecx
  307f9f:	8d 50 ff             	lea    -0x1(%rax),%edx
  307fa2:	48 8b 45 80          	mov    -0x80(%rbp),%rax
  307fa6:	48 d3 e8             	shr    %cl,%rax
  307fa9:	48 8d 4d 90          	lea    -0x70(%rbp),%rcx
  307fad:	21 d0                	and    %edx,%eax
  307faf:	48 83 c1 3f          	add    $0x3f,%rcx
  307fb3:	eb 06                	jmp    307fbb <_doprnt+0xc6b>
  307fb5:	0f 1f 00             	nopl   (%rax)
  307fb8:	48 89 f9             	mov    %rdi,%rcx
  307fbb:	31 d2                	xor    %edx,%edx
  307fbd:	48 8d 79 ff          	lea    -0x1(%rcx),%rdi
  307fc1:	49 f7 f0             	div    %r8
  307fc4:	41 0f be 34 17       	movsbl (%r15,%rdx,1),%esi
  307fc9:	48 85 c0             	test   %rax,%rax
  307fcc:	40 88 77 01          	mov    %sil,0x1(%rdi)
  307fd0:	75 e6                	jne    307fb8 <_doprnt+0xc68>
  307fd2:	48 8d 45 d0          	lea    -0x30(%rbp),%rax
  307fd6:	48 39 c1             	cmp    %rax,%rcx
  307fd9:	74 25                	je     308000 <_doprnt+0xcb0>
  307fdb:	4c 8d 69 01          	lea    0x1(%rcx),%r13
  307fdf:	eb 10                	jmp    307ff1 <_doprnt+0xca1>
  307fe1:	0f 1f 80 00 00 00 00 	nopl   0x0(%rax)
  307fe8:	41 0f be 75 00       	movsbl 0x0(%r13),%esi
  307fed:	49 83 c5 01          	add    $0x1,%r13
  307ff1:	4c 89 f7             	mov    %r14,%rdi
  307ff4:	41 ff d4             	callq  *%r12
  307ff7:	48 8d 45 d0          	lea    -0x30(%rbp),%rax
  307ffb:	49 39 c5             	cmp    %rax,%r13
  307ffe:	75 e8                	jne    307fe8 <_doprnt+0xc98>
  308000:	0f b6 33             	movzbl (%rbx),%esi
  308003:	ba 01 00 00 00       	mov    $0x1,%edx
  308008:	44 0f be ee          	movsbl %sil,%r13d
  30800c:	45 85 ed             	test   %r13d,%r13d
  30800f:	0f 85 1d ff ff ff    	jne    307f32 <_doprnt+0xbe2>
  308015:	84 d2                	test   %dl,%dl
  308017:	4c 8b b5 58 ff ff ff 	mov    -0xa8(%rbp),%r14
  30801e:	0f 84 b4 f7 ff ff    	je     3077d8 <_doprnt+0x488>
  308024:	be 3e 00 00 00       	mov    $0x3e,%esi
  308029:	48 8b 7d 88          	mov    -0x78(%rbp),%rdi
  30802d:	41 ff d4             	callq  *%r12
  308030:	41 0f be 76 01       	movsbl 0x1(%r14),%esi
  308035:	e9 a3 f7 ff ff       	jmpq   3077dd <_doprnt+0x48d>
  30803a:	49 83 ee 01          	sub    $0x1,%r14
  30803e:	31 f6                	xor    %esi,%esi
  308040:	e9 98 f7 ff ff       	jmpq   3077dd <_doprnt+0x48d>
  308045:	44 0f b6 95 70 ff ff 	movzbl -0x90(%rbp),%r10d
  30804c:	ff 
  30804d:	45 89 e8             	mov    %r13d,%r8d
  308050:	41 83 f2 01          	xor    $0x1,%r10d
  308054:	80 7d 80 20          	cmpb   $0x20,-0x80(%rbp)
  308058:	0f 94 c0             	sete   %al
  30805b:	41 21 c2             	and    %eax,%r10d
  30805e:	e9 5b fb ff ff       	jmpq   307bbe <_doprnt+0x86e>
  308063:	0f be f0             	movsbl %al,%esi
  308066:	48 8b 7d 88          	mov    -0x78(%rbp),%rdi
  30806a:	41 ff d4             	callq  *%r12
  30806d:	e9 66 f7 ff ff       	jmpq   3077d8 <_doprnt+0x488>
  308072:	44 89 ce             	mov    %r9d,%esi
  308075:	48 8b 7d 88          	mov    -0x78(%rbp),%rdi
  308079:	41 ff d4             	callq  *%r12
  30807c:	e9 48 fa ff ff       	jmpq   307ac9 <_doprnt+0x779>
  308081:	8b 85 78 ff ff ff    	mov    -0x88(%rbp),%eax
  308087:	83 e8 01             	sub    $0x1,%eax
  30808a:	0f 88 6d 04 00 00    	js     3084fd <_doprnt+0x11ad>
  308090:	48 89 5d 80          	mov    %rbx,-0x80(%rbp)
  308094:	48 8b 5d 88          	mov    -0x78(%rbp),%rbx
  308098:	45 89 ef             	mov    %r13d,%r15d
  30809b:	41 89 c5             	mov    %eax,%r13d
  30809e:	66 90                	xchg   %ax,%ax
  3080a0:	41 83 ed 01          	sub    $0x1,%r13d
  3080a4:	be 30 00 00 00       	mov    $0x30,%esi
  3080a9:	48 89 df             	mov    %rbx,%rdi
  3080ac:	41 ff d4             	callq  *%r12
  3080af:	41 83 fd ff          	cmp    $0xffffffff,%r13d
  3080b3:	75 eb                	jne    3080a0 <_doprnt+0xd50>
  3080b5:	44 89 e8             	mov    %r13d,%eax
  3080b8:	48 8b 5d 80          	mov    -0x80(%rbp),%rbx
  3080bc:	45 89 fd             	mov    %r15d,%r13d
  3080bf:	89 85 78 ff ff ff    	mov    %eax,-0x88(%rbp)
  3080c5:	e9 41 fa ff ff       	jmpq   307b0b <_doprnt+0x7bb>
  3080ca:	83 fe 10             	cmp    $0x10,%esi
  3080cd:	bf 10 00 00 00       	mov    $0x10,%edi
  3080d2:	49 bf 17 f5 34 00 00 	movabs $0x34f517,%r15
  3080d9:	00 00 00 
  3080dc:	0f 84 f6 f8 ff ff    	je     3079d8 <_doprnt+0x688>
  3080e2:	48 63 fe             	movslq %esi,%rdi
  3080e5:	45 31 ff             	xor    %r15d,%r15d
  3080e8:	e9 eb f8 ff ff       	jmpq   3079d8 <_doprnt+0x688>
  3080ed:	48 8b bd 68 ff ff ff 	mov    -0x98(%rbp),%rdi
  3080f4:	8b 17                	mov    (%rdi),%edx
  3080f6:	83 fa 2f             	cmp    $0x2f,%edx
  3080f9:	0f 86 40 03 00 00    	jbe    30843f <_doprnt+0x10ef>
  3080ff:	48 8b bd 68 ff ff ff 	mov    -0x98(%rbp),%rdi
  308106:	48 8b 47 08          	mov    0x8(%rdi),%rax
  30810a:	48 8d 50 08          	lea    0x8(%rax),%rdx
  30810e:	48 89 57 08          	mov    %rdx,0x8(%rdi)
  308112:	8b 18                	mov    (%rax),%ebx
  308114:	49 83 c6 02          	add    $0x2,%r14
  308118:	41 0f b6 06          	movzbl (%r14),%eax
  30811c:	e9 49 f3 ff ff       	jmpq   30746a <_doprnt+0x11a>
  308121:	48 8b 8d 68 ff ff ff 	mov    -0x98(%rbp),%rcx
  308128:	48 8b 51 08          	mov    0x8(%rcx),%rdx
  30812c:	48 8d 42 08          	lea    0x8(%rdx),%rax
  308130:	48 89 41 08          	mov    %rax,0x8(%rcx)
  308134:	48 8b 0a             	mov    (%rdx),%rcx
  308137:	48 89 4d 80          	mov    %rcx,-0x80(%rbp)
  30813b:	48 8b 8d 68 ff ff ff 	mov    -0x98(%rbp),%rcx
  308142:	48 8d 50 08          	lea    0x8(%rax),%rdx
  308146:	48 89 51 08          	mov    %rdx,0x8(%rcx)
  30814a:	e9 17 fd ff ff       	jmpq   307e66 <_doprnt+0xb16>
  30814f:	48 8b 8d 68 ff ff ff 	mov    -0x98(%rbp),%rcx
  308156:	48 8b 41 08          	mov    0x8(%rcx),%rax
  30815a:	48 8d 50 08          	lea    0x8(%rax),%rdx
  30815e:	48 89 51 08          	mov    %rdx,0x8(%rcx)
  308162:	e9 f4 fb ff ff       	jmpq   307d5b <_doprnt+0xa0b>
  308167:	48 8b bd 68 ff ff ff 	mov    -0x98(%rbp),%rdi
  30816e:	48 8b 47 08          	mov    0x8(%rdi),%rax
  308172:	48 8d 48 08          	lea    0x8(%rax),%rcx
  308176:	48 89 4f 08          	mov    %rcx,0x8(%rdi)
  30817a:	e9 8f f6 ff ff       	jmpq   30780e <_doprnt+0x4be>
  30817f:	48 8b bd 68 ff ff ff 	mov    -0x98(%rbp),%rdi
  308186:	45 85 ff             	test   %r15d,%r15d
  308189:	48 8b 47 08          	mov    0x8(%rdi),%rax
  30818d:	48 8d 50 08          	lea    0x8(%rax),%rdx
  308191:	48 89 57 08          	mov    %rdx,0x8(%rdi)
  308195:	48 8b 38             	mov    (%rax),%rdi
  308198:	48 89 bd 78 ff ff ff 	mov    %rdi,-0x88(%rbp)
  30819f:	0f 85 42 f4 ff ff    	jne    3075e7 <_doprnt+0x297>
  3081a5:	48 8b bd 78 ff ff ff 	mov    -0x88(%rbp),%rdi
  3081ac:	80 f9 01             	cmp    $0x1,%cl
  3081af:	48 19 c0             	sbb    %rax,%rax
  3081b2:	48 83 e0 fe          	and    $0xfffffffffffffffe,%rax
  3081b6:	48 89 fa             	mov    %rdi,%rdx
  3081b9:	48 c1 ea 0a          	shr    $0xa,%rdx
  3081bd:	89 d3                	mov    %edx,%ebx
  3081bf:	83 e3 7f             	and    $0x7f,%ebx
  3081c2:	0f b6 d3             	movzbl %bl,%edx
  3081c5:	88 9d 44 ff ff ff    	mov    %bl,-0xbc(%rbp)
  3081cb:	31 db                	xor    %ebx,%ebx
  3081cd:	83 fa 0f             	cmp    $0xf,%edx
  3081d0:	48 89 fa             	mov    %rdi,%rdx
  3081d3:	0f 9f c3             	setg   %bl
  3081d6:	48 c1 ea 11          	shr    $0x11,%rdx
  3081da:	31 f6                	xor    %esi,%esi
  3081dc:	89 d7                	mov    %edx,%edi
  3081de:	48 89 9d 78 ff ff ff 	mov    %rbx,-0x88(%rbp)
  3081e5:	48 83 c3 01          	add    $0x1,%rbx
  3081e9:	66 81 e7 ff 07       	and    $0x7ff,%di
  3081ee:	48 89 9d 58 ff ff ff 	mov    %rbx,-0xa8(%rbp)
  3081f5:	0f b7 d7             	movzwl %di,%edx
  3081f8:	66 89 bd 60 ff ff ff 	mov    %di,-0xa0(%rbp)
  3081ff:	83 fa 0f             	cmp    $0xf,%edx
  308202:	40 0f 9f c6          	setg   %sil
  308206:	45 31 ff             	xor    %r15d,%r15d
  308209:	81 fa ff 00 00 00    	cmp    $0xff,%edx
  30820f:	0f b6 95 70 ff ff ff 	movzbl -0x90(%rbp),%edx
  308216:	48 8d 44 30 04       	lea    0x4(%rax,%rsi,1),%rax
  30821b:	41 0f 9f c7          	setg   %r15b
  30821f:	49 01 c7             	add    %rax,%r15
  308222:	45 85 ed             	test   %r13d,%r13d
  308225:	4d 63 ed             	movslq %r13d,%r13
  308228:	0f 9f c0             	setg   %al
  30822b:	83 f2 01             	xor    $0x1,%edx
  30822e:	21 c2                	and    %eax,%edx
  308230:	80 7d 80 20          	cmpb   $0x20,-0x80(%rbp)
  308234:	88 95 53 ff ff ff    	mov    %dl,-0xad(%rbp)
  30823a:	75 08                	jne    308244 <_doprnt+0xef4>
  30823c:	84 d2                	test   %dl,%dl
  30823e:	0f 85 93 03 00 00    	jne    3085d7 <_doprnt+0x1287>
  308244:	84 c9                	test   %cl,%cl
  308246:	0f 85 6d 03 00 00    	jne    3085b9 <_doprnt+0x1269>
  30824c:	80 7d 80 30          	cmpb   $0x30,-0x80(%rbp)
  308250:	75 0d                	jne    30825f <_doprnt+0xf0f>
  308252:	80 bd 53 ff ff ff 00 	cmpb   $0x0,-0xad(%rbp)
  308259:	0f 85 27 03 00 00    	jne    308586 <_doprnt+0x1236>
  30825f:	48 8d 45 90          	lea    -0x70(%rbp),%rax
  308263:	48 bf 60 b5 34 00 00 	movabs $0x34b560,%rdi
  30826a:	00 00 00 
  30826d:	0f b7 b5 60 ff ff ff 	movzwl -0xa0(%rbp),%esi
  308274:	49 89 f8             	mov    %rdi,%r8
  308277:	48 89 bd 60 ff ff ff 	mov    %rdi,-0xa0(%rbp)
  30827e:	48 83 c0 3f          	add    $0x3f,%rax
  308282:	eb 07                	jmp    30828b <_doprnt+0xf3b>
  308284:	0f 1f 40 00          	nopl   0x0(%rax)
  308288:	48 89 f8             	mov    %rdi,%rax
  30828b:	48 89 f2             	mov    %rsi,%rdx
  30828e:	48 8d 78 ff          	lea    -0x1(%rax),%rdi
  308292:	48 c1 ee 04          	shr    $0x4,%rsi
  308296:	83 e2 0f             	and    $0xf,%edx
  308299:	48 85 f6             	test   %rsi,%rsi
  30829c:	41 0f b6 14 10       	movzbl (%r8,%rdx,1),%edx
  3082a1:	88 57 01             	mov    %dl,0x1(%rdi)
  3082a4:	75 e2                	jne    308288 <_doprnt+0xf38>
  3082a6:	48 8d 7d d0          	lea    -0x30(%rbp),%rdi
  3082aa:	48 39 f8             	cmp    %rdi,%rax
  3082ad:	74 48                	je     3082f7 <_doprnt+0xfa7>
  3082af:	4c 89 ad 38 ff ff ff 	mov    %r13,-0xc8(%rbp)
  3082b6:	48 8d 58 01          	lea    0x1(%rax),%rbx
  3082ba:	88 8d 52 ff ff ff    	mov    %cl,-0xae(%rbp)
  3082c0:	4c 8b 6d 88          	mov    -0x78(%rbp),%r13
  3082c4:	eb 11                	jmp    3082d7 <_doprnt+0xf87>
  3082c6:	66 2e 0f 1f 84 00 00 	nopw   %cs:0x0(%rax,%rax,1)
  3082cd:	00 00 00 
  3082d0:	0f b6 13             	movzbl (%rbx),%edx
  3082d3:	48 83 c3 01          	add    $0x1,%rbx
  3082d7:	0f be f2             	movsbl %dl,%esi
  3082da:	4c 89 ef             	mov    %r13,%rdi
  3082dd:	41 ff d4             	callq  *%r12
  3082e0:	48 8d 45 d0          	lea    -0x30(%rbp),%rax
  3082e4:	48 39 c3             	cmp    %rax,%rbx
  3082e7:	75 e7                	jne    3082d0 <_doprnt+0xf80>
  3082e9:	0f b6 8d 52 ff ff ff 	movzbl -0xae(%rbp),%ecx
  3082f0:	4c 8b ad 38 ff ff ff 	mov    -0xc8(%rbp),%r13
  3082f7:	88 8d 52 ff ff ff    	mov    %cl,-0xae(%rbp)
  3082fd:	be 2e 00 00 00       	mov    $0x2e,%esi
  308302:	48 8b 7d 88          	mov    -0x78(%rbp),%rdi
  308306:	41 ff d4             	callq  *%r12
  308309:	80 bd 53 ff ff ff 00 	cmpb   $0x0,-0xad(%rbp)
  308310:	0f b6 8d 52 ff ff ff 	movzbl -0xae(%rbp),%ecx
  308317:	0f 84 eb 01 00 00    	je     308508 <_doprnt+0x11b8>
  30831d:	48 8b 85 58 ff ff ff 	mov    -0xa8(%rbp),%rax
  308324:	4c 01 f8             	add    %r15,%rax
  308327:	4c 39 e8             	cmp    %r13,%rax
  30832a:	48 89 85 58 ff ff ff 	mov    %rax,-0xa8(%rbp)
  308331:	7d 3e                	jge    308371 <_doprnt+0x1021>
  308333:	0f be 45 80          	movsbl -0x80(%rbp),%eax
  308337:	49 8d 5f 01          	lea    0x1(%r15),%rbx
  30833b:	41 89 cf             	mov    %ecx,%r15d
  30833e:	89 45 80             	mov    %eax,-0x80(%rbp)
  308341:	8b 75 80             	mov    -0x80(%rbp),%esi
  308344:	48 8b 7d 88          	mov    -0x78(%rbp),%rdi
  308348:	41 ff d4             	callq  *%r12
  30834b:	48 8b 85 78 ff ff ff 	mov    -0x88(%rbp),%rax
  308352:	48 89 d9             	mov    %rbx,%rcx
  308355:	48 83 c3 01          	add    $0x1,%rbx
  308359:	48 8d 14 03          	lea    (%rbx,%rax,1),%rdx
  30835d:	4c 39 ea             	cmp    %r13,%rdx
  308360:	7c df                	jl     308341 <_doprnt+0xff1>
  308362:	44 89 f8             	mov    %r15d,%eax
  308365:	48 89 95 58 ff ff ff 	mov    %rdx,-0xa8(%rbp)
  30836c:	49 89 cf             	mov    %rcx,%r15
  30836f:	89 c1                	mov    %eax,%ecx
  308371:	48 8d 45 90          	lea    -0x70(%rbp),%rax
  308375:	0f b6 b5 44 ff ff ff 	movzbl -0xbc(%rbp),%esi
  30837c:	4c 8b 85 60 ff ff ff 	mov    -0xa0(%rbp),%r8
  308383:	48 83 c0 3f          	add    $0x3f,%rax
  308387:	eb 0a                	jmp    308393 <_doprnt+0x1043>
  308389:	0f 1f 80 00 00 00 00 	nopl   0x0(%rax)
  308390:	48 89 f8             	mov    %rdi,%rax
  308393:	48 89 f2             	mov    %rsi,%rdx
  308396:	48 8d 78 ff          	lea    -0x1(%rax),%rdi
  30839a:	48 c1 ee 04          	shr    $0x4,%rsi
  30839e:	83 e2 0f             	and    $0xf,%edx
  3083a1:	48 85 f6             	test   %rsi,%rsi
  3083a4:	41 0f b6 14 10       	movzbl (%r8,%rdx,1),%edx
  3083a9:	88 57 01             	mov    %dl,0x1(%rdi)
  3083ac:	75 e2                	jne    308390 <_doprnt+0x1040>
  3083ae:	48 8d 7d d0          	lea    -0x30(%rbp),%rdi
  3083b2:	48 39 f8             	cmp    %rdi,%rax
  3083b5:	74 3d                	je     3083f4 <_doprnt+0x10a4>
  3083b7:	4c 89 ad 60 ff ff ff 	mov    %r13,-0xa0(%rbp)
  3083be:	48 8d 58 01          	lea    0x1(%rax),%rbx
  3083c2:	88 4d 80             	mov    %cl,-0x80(%rbp)
  3083c5:	4c 8b 6d 88          	mov    -0x78(%rbp),%r13
  3083c9:	eb 0c                	jmp    3083d7 <_doprnt+0x1087>
  3083cb:	0f 1f 44 00 00       	nopl   0x0(%rax,%rax,1)
  3083d0:	0f b6 13             	movzbl (%rbx),%edx
  3083d3:	48 83 c3 01          	add    $0x1,%rbx
  3083d7:	0f be f2             	movsbl %dl,%esi
  3083da:	4c 89 ef             	mov    %r13,%rdi
  3083dd:	41 ff d4             	callq  *%r12
  3083e0:	48 8d 45 d0          	lea    -0x30(%rbp),%rax
  3083e4:	48 39 c3             	cmp    %rax,%rbx
  3083e7:	75 e7                	jne    3083d0 <_doprnt+0x1080>
  3083e9:	0f b6 4d 80          	movzbl -0x80(%rbp),%ecx
  3083ed:	4c 8b ad 60 ff ff ff 	mov    -0xa0(%rbp),%r13
  3083f4:	84 c9                	test   %cl,%cl
  3083f6:	0f 85 79 01 00 00    	jne    308575 <_doprnt+0x1225>
  3083fc:	4c 3b ad 58 ff ff ff 	cmp    -0xa8(%rbp),%r13
  308403:	0f 8e cf f3 ff ff    	jle    3077d8 <_doprnt+0x488>
  308409:	f6 85 70 ff ff ff 01 	testb  $0x1,-0x90(%rbp)
  308410:	49 8d 5f 01          	lea    0x1(%r15),%rbx
  308414:	0f 84 be f3 ff ff    	je     3077d8 <_doprnt+0x488>
  30841a:	4c 8b bd 78 ff ff ff 	mov    -0x88(%rbp),%r15
  308421:	48 83 c3 01          	add    $0x1,%rbx
  308425:	be 20 00 00 00       	mov    $0x20,%esi
  30842a:	48 8b 7d 88          	mov    -0x78(%rbp),%rdi
  30842e:	41 ff d4             	callq  *%r12
  308431:	4a 8d 04 3b          	lea    (%rbx,%r15,1),%rax
  308435:	4c 39 e8             	cmp    %r13,%rax
  308438:	7c e7                	jl     308421 <_doprnt+0x10d1>
  30843a:	e9 99 f3 ff ff       	jmpq   3077d8 <_doprnt+0x488>
  30843f:	89 d0                	mov    %edx,%eax
  308441:	83 c2 08             	add    $0x8,%edx
  308444:	48 03 47 10          	add    0x10(%rdi),%rax
  308448:	89 17                	mov    %edx,(%rdi)
  30844a:	e9 c3 fc ff ff       	jmpq   308112 <_doprnt+0xdc2>
  30844f:	41 8d 4d ff          	lea    -0x1(%r13),%ecx
  308453:	b8 01 00 00 00       	mov    $0x1,%eax
  308458:	4c 8d 43 01          	lea    0x1(%rbx),%r8
  30845c:	d3 e0                	shl    %cl,%eax
  30845e:	48 98                	cltq   
  308460:	48 85 45 80          	test   %rax,-0x80(%rbp)
  308464:	74 47                	je     3084ad <_doprnt+0x115d>
  308466:	84 d2                	test   %dl,%dl
  308468:	4c 89 85 78 ff ff ff 	mov    %r8,-0x88(%rbp)
  30846f:	74 6c                	je     3084dd <_doprnt+0x118d>
  308471:	be 2c 00 00 00       	mov    $0x2c,%esi
  308476:	4c 89 f7             	mov    %r14,%rdi
  308479:	41 ff d4             	callq  *%r12
  30847c:	4c 8b 85 78 ff ff ff 	mov    -0x88(%rbp),%r8
  308483:	0f be 73 01          	movsbl 0x1(%rbx),%esi
  308487:	4c 89 c3             	mov    %r8,%rbx
  30848a:	40 80 fe 20          	cmp    $0x20,%sil
  30848e:	7e 13                	jle    3084a3 <_doprnt+0x1153>
  308490:	48 83 c3 01          	add    $0x1,%rbx
  308494:	4c 89 f7             	mov    %r14,%rdi
  308497:	41 ff d4             	callq  *%r12
  30849a:	0f be 33             	movsbl (%rbx),%esi
  30849d:	40 80 fe 20          	cmp    $0x20,%sil
  3084a1:	7f ed                	jg     308490 <_doprnt+0x1140>
  3084a3:	ba 01 00 00 00       	mov    $0x1,%edx
  3084a8:	e9 78 fa ff ff       	jmpq   307f25 <_doprnt+0xbd5>
  3084ad:	4c 89 c3             	mov    %r8,%rbx
  3084b0:	48 83 c3 01          	add    $0x1,%rbx
  3084b4:	0f b6 33             	movzbl (%rbx),%esi
  3084b7:	40 80 fe 20          	cmp    $0x20,%sil
  3084bb:	7f f3                	jg     3084b0 <_doprnt+0x1160>
  3084bd:	e9 63 fa ff ff       	jmpq   307f25 <_doprnt+0xbd5>
  3084c2:	be 3c 00 00 00       	mov    $0x3c,%esi
  3084c7:	4c 89 f7             	mov    %r14,%rdi
  3084ca:	41 ff d4             	callq  *%r12
  3084cd:	e9 7d fa ff ff       	jmpq   307f4f <_doprnt+0xbff>
  3084d2:	89 85 78 ff ff ff    	mov    %eax,-0x88(%rbp)
  3084d8:	e9 e3 f5 ff ff       	jmpq   307ac0 <_doprnt+0x770>
  3084dd:	be 3c 00 00 00       	mov    $0x3c,%esi
  3084e2:	4c 89 f7             	mov    %r14,%rdi
  3084e5:	41 ff d4             	callq  *%r12
  3084e8:	4c 8b 85 78 ff ff ff 	mov    -0x88(%rbp),%r8
  3084ef:	eb 92                	jmp    308483 <_doprnt+0x1133>
  3084f1:	49 63 c5             	movslq %r13d,%rax
  3084f4:	48 89 45 80          	mov    %rax,-0x80(%rbp)
  3084f8:	e9 b4 f3 ff ff       	jmpq   3078b1 <_doprnt+0x561>
  3084fd:	89 85 78 ff ff ff    	mov    %eax,-0x88(%rbp)
  308503:	e9 03 f6 ff ff       	jmpq   307b0b <_doprnt+0x7bb>
  308508:	48 8b 85 58 ff ff ff 	mov    -0xa8(%rbp),%rax
  30850f:	4c 01 f8             	add    %r15,%rax
  308512:	48 89 85 58 ff ff ff 	mov    %rax,-0xa8(%rbp)
  308519:	e9 53 fe ff ff       	jmpq   308371 <_doprnt+0x1021>
  30851e:	45 85 ed             	test   %r13d,%r13d
  308521:	0f b6 85 70 ff ff ff 	movzbl -0x90(%rbp),%eax
  308528:	0f 9f 45 80          	setg   -0x80(%rbp)
  30852c:	0f b6 7d 80          	movzbl -0x80(%rbp),%edi
  308530:	83 f0 01             	xor    $0x1,%eax
  308533:	40 20 f8             	and    %dil,%al
  308536:	0f 85 44 01 00 00    	jne    308680 <_doprnt+0x1330>
  30853c:	bb 11 00 00 00       	mov    $0x11,%ebx
  308541:	e9 1f f1 ff ff       	jmpq   307665 <_doprnt+0x315>
  308546:	80 7d 80 20          	cmpb   $0x20,-0x80(%rbp)
  30854a:	44 0f b6 95 70 ff ff 	movzbl -0x90(%rbp),%r10d
  308551:	ff 
  308552:	45 89 e8             	mov    %r13d,%r8d
  308555:	0f 94 c0             	sete   %al
  308558:	41 83 f2 01          	xor    $0x1,%r10d
  30855c:	41 21 c2             	and    %eax,%r10d
  30855f:	e9 5a f6 ff ff       	jmpq   307bbe <_doprnt+0x86e>
  308564:	be 5d 00 00 00       	mov    $0x5d,%esi
  308569:	48 8b 7d 88          	mov    -0x78(%rbp),%rdi
  30856d:	41 ff d4             	callq  *%r12
  308570:	e9 32 f2 ff ff       	jmpq   3077a7 <_doprnt+0x457>
  308575:	be 5d 00 00 00       	mov    $0x5d,%esi
  30857a:	48 8b 7d 88          	mov    -0x78(%rbp),%rdi
  30857e:	41 ff d4             	callq  *%r12
  308581:	e9 76 fe ff ff       	jmpq   3083fc <_doprnt+0x10ac>
  308586:	49 8d 47 02          	lea    0x2(%r15),%rax
  30858a:	4c 39 e8             	cmp    %r13,%rax
  30858d:	0f 8d cc fc ff ff    	jge    30825f <_doprnt+0xf0f>
  308593:	89 cb                	mov    %ecx,%ebx
  308595:	49 83 c7 01          	add    $0x1,%r15
  308599:	be 30 00 00 00       	mov    $0x30,%esi
  30859e:	48 8b 7d 88          	mov    -0x78(%rbp),%rdi
  3085a2:	41 ff d4             	callq  *%r12
  3085a5:	49 8d 47 02          	lea    0x2(%r15),%rax
  3085a9:	4c 39 e8             	cmp    %r13,%rax
  3085ac:	7c e7                	jl     308595 <_doprnt+0x1245>
  3085ae:	89 d9                	mov    %ebx,%ecx
  3085b0:	4d 8d 7d fe          	lea    -0x2(%r13),%r15
  3085b4:	e9 a6 fc ff ff       	jmpq   30825f <_doprnt+0xf0f>
  3085b9:	88 8d 52 ff ff ff    	mov    %cl,-0xae(%rbp)
  3085bf:	be 5b 00 00 00       	mov    $0x5b,%esi
  3085c4:	48 8b 7d 88          	mov    -0x78(%rbp),%rdi
  3085c8:	41 ff d4             	callq  *%r12
  3085cb:	0f b6 8d 52 ff ff ff 	movzbl -0xae(%rbp),%ecx
  3085d2:	e9 75 fc ff ff       	jmpq   30824c <_doprnt+0xefc>
  3085d7:	49 8d 47 02          	lea    0x2(%r15),%rax
  3085db:	49 39 c5             	cmp    %rax,%r13
  3085de:	0f 8e 60 fc ff ff    	jle    308244 <_doprnt+0xef4>
  3085e4:	49 8d 5d fe          	lea    -0x2(%r13),%rbx
  3085e8:	49 83 c7 01          	add    $0x1,%r15
  3085ec:	88 8d 52 ff ff ff    	mov    %cl,-0xae(%rbp)
  3085f2:	be 20 00 00 00       	mov    $0x20,%esi
  3085f7:	48 8b 7d 88          	mov    -0x78(%rbp),%rdi
  3085fb:	41 ff d4             	callq  *%r12
  3085fe:	4c 39 fb             	cmp    %r15,%rbx
  308601:	0f b6 8d 52 ff ff ff 	movzbl -0xae(%rbp),%ecx
  308608:	75 de                	jne    3085e8 <_doprnt+0x1298>
  30860a:	49 89 df             	mov    %rbx,%r15
  30860d:	e9 32 fc ff ff       	jmpq   308244 <_doprnt+0xef4>
  308612:	45 31 ed             	xor    %r13d,%r13d
  308615:	e9 f1 f2 ff ff       	jmpq   30790b <_doprnt+0x5bb>
  30861a:	41 bd 01 00 00 00    	mov    $0x1,%r13d
  308620:	e9 e6 f2 ff ff       	jmpq   30790b <_doprnt+0x5bb>
  308625:	48 89 cb             	mov    %rcx,%rbx
  308628:	e9 9d f2 ff ff       	jmpq   3078ca <_doprnt+0x57a>
  30862d:	88 45 80             	mov    %al,-0x80(%rbp)
  308630:	e9 17 f0 ff ff       	jmpq   30764c <_doprnt+0x2fc>
  308635:	bb 13 00 00 00       	mov    $0x13,%ebx
  30863a:	e9 0d f0 ff ff       	jmpq   30764c <_doprnt+0x2fc>
  30863f:	49 63 cd             	movslq %r13d,%rcx
  308642:	48 89 4d 80          	mov    %rcx,-0x80(%rbp)
  308646:	4c 89 b5 78 ff ff ff 	mov    %r14,-0x88(%rbp)
  30864d:	89 9d 60 ff ff ff    	mov    %ebx,-0xa0(%rbp)
  308653:	49 89 c6             	mov    %rax,%r14
  308656:	48 89 cb             	mov    %rcx,%rbx
  308659:	4c 8b 6d 88          	mov    -0x78(%rbp),%r13
  30865d:	e9 2e f2 ff ff       	jmpq   307890 <_doprnt+0x540>
  308662:	49 63 c5             	movslq %r13d,%rax
  308665:	48 89 c1             	mov    %rax,%rcx
  308668:	48 89 45 80          	mov    %rax,-0x80(%rbp)
  30866c:	31 c0                	xor    %eax,%eax
  30866e:	eb d6                	jmp    308646 <_doprnt+0x12f6>
  308670:	48 8b 85 68 ff ff ff 	mov    -0x98(%rbp),%rax
  308677:	48 8b 40 08          	mov    0x8(%rax),%rax
  30867b:	e9 bb fa ff ff       	jmpq   30813b <_doprnt+0xdeb>
  308680:	4d 63 fd             	movslq %r13d,%r15
  308683:	bb 11 00 00 00       	mov    $0x11,%ebx
  308688:	49 83 ff 11          	cmp    $0x11,%r15
  30868c:	0f 8f 96 ef ff ff    	jg     307628 <_doprnt+0x2d8>
  308692:	88 45 80             	mov    %al,-0x80(%rbp)
  308695:	e9 cb ef ff ff       	jmpq   307665 <_doprnt+0x315>
  30869a:	66 0f 1f 44 00 00    	nopw   0x0(%rax,%rax,1)

00000000003086a0 <spin_lock_irq_save>:
  3086a0:	55                   	push   %rbp
  3086a1:	48 89 e5             	mov    %rsp,%rbp
  3086a4:	9c                   	pushfq 
  3086a5:	58                   	pop    %rax
  3086a6:	25 00 02 00 00       	and    $0x200,%eax
  3086ab:	0f 95 c0             	setne  %al
  3086ae:	74 01                	je     3086b1 <spin_lock_irq_save+0x11>
  3086b0:	fa                   	cli    
  3086b1:	b9 01 00 00 00       	mov    $0x1,%ecx
  3086b6:	eb 0a                	jmp    3086c2 <spin_lock_irq_save+0x22>
  3086b8:	0f 1f 84 00 00 00 00 	nopl   0x0(%rax,%rax,1)
  3086bf:	00 
  3086c0:	f3 90                	pause  
  3086c2:	89 ca                	mov    %ecx,%edx
  3086c4:	87 17                	xchg   %edx,(%rdi)
  3086c6:	85 d2                	test   %edx,%edx
  3086c8:	75 f6                	jne    3086c0 <spin_lock_irq_save+0x20>
  3086ca:	5d                   	pop    %rbp
  3086cb:	c3                   	retq   
  3086cc:	0f 1f 40 00          	nopl   0x0(%rax)

00000000003086d0 <_vc_display_char_specific>:
  3086d0:	48 85 ff             	test   %rdi,%rdi
  3086d3:	74 73                	je     308748 <_vc_display_char_specific+0x78>
  3086d5:	55                   	push   %rbp
  3086d6:	89 f0                	mov    %esi,%eax
  3086d8:	0f b6 f2             	movzbl %dl,%esi
  3086db:	48 89 e5             	mov    %rsp,%rbp
  3086de:	41 56                	push   %r14
  3086e0:	41 55                	push   %r13
  3086e2:	41 54                	push   %r12
  3086e4:	53                   	push   %rbx
  3086e5:	89 cb                	mov    %ecx,%ebx
  3086e7:	44 0f b6 e1          	movzbl %cl,%r12d
  3086eb:	45 89 c5             	mov    %r8d,%r13d
  3086ee:	49 89 fe             	mov    %rdi,%r14
  3086f1:	0f be f8             	movsbl %al,%edi
  3086f4:	48 b8 60 ce 32 00 00 	movabs $0x32ce60,%rax
  3086fb:	00 00 00 
  3086fe:	ff d0                	callq  *%rax
  308700:	80 fb 4f             	cmp    $0x4f,%bl
  308703:	77 7b                	ja     308780 <_vc_display_char_specific+0xb0>
  308705:	41 80 fd 18          	cmp    $0x18,%r13b
  308709:	77 75                	ja     308780 <_vc_display_char_specific+0xb0>
  30870b:	45 0f b6 ed          	movzbl %r13b,%r13d
  30870f:	0f b6 db             	movzbl %bl,%ebx
  308712:	48 b9 30 a0 35 00 00 	movabs $0x35a030,%rcx
  308719:	00 00 00 
  30871c:	43 8d 54 ad 00       	lea    0x0(%r13,%r13,4),%edx
  308721:	c1 e2 04             	shl    $0x4,%edx
  308724:	01 d3                	add    %edx,%ebx
  308726:	4c 3b 31             	cmp    (%rcx),%r14
  308729:	48 63 db             	movslq %ebx,%rbx
  30872c:	66 41 89 84 5e 2c 04 	mov    %ax,0x42c(%r14,%rbx,2)
  308733:	00 00 
